(lp0
(dp1
S'trans_time'
p2
I00
sS'ac_state'
p3
I00
sS'total_run_time_home'
p4
I0
sS'total_run_time_away'
p5
I0
sS'total_trans_time'
p6
I0
sS'away'
p7
I00
sS'target_type'
p8
Vcool
p9
sS'current_temperature'
p10
F77.88199999999999
sS'total_run_time'
p11
I0
sS'target_temperature'
p12
F78.000008
sS'outside_temperature'
p13
F90.7
sS'$timestamp'
p14
S'2015-05-06T17:23:30.149598'
p15
sa(dp16
S'trans_time'
p17
I00
sS'ac_state'
p18
I00
sS'total_run_time_home'
p19
I0
sS'total_run_time_away'
p20
I0
sS'total_trans_time'
p21
I0
sS'away'
p22
I00
sS'target_type'
p23
Vcool
p24
sS'current_temperature'
p25
F77.88199999999999
sS'total_run_time'
p26
I0
sS'target_temperature'
p27
F78.000008
sS'outside_temperature'
p28
F90.7
sS'$timestamp'
p29
S'2015-05-06T17:23:59.928109'
p30
sa(dp31
S'trans_time'
p32
I00
sS'ac_state'
p33
I00
sS'total_run_time_home'
p34
I0
sS'total_run_time_away'
p35
I0
sS'total_trans_time'
p36
I0
sS'away'
p37
I00
sS'target_type'
p38
Vcool
p39
sS'current_temperature'
p40
F77.88199999999999
sS'total_run_time'
p41
I0
sS'target_temperature'
p42
F75.999992
sS'outside_temperature'
p43
F90.7
sS'$timestamp'
p44
S'2015-05-06T17:24:26.581624'
p45
sa(dp46
S'trans_time'
p47
I00
sS'ac_state'
p48
I00
sS'total_run_time_home'
p49
I0
sS'total_run_time_away'
p50
I0
sS'total_trans_time'
p51
I0
sS'away'
p52
I00
sS'target_type'
p53
Vcool
p54
sS'current_temperature'
p55
F77.88199999999999
sS'total_run_time'
p56
I0
sS'target_temperature'
p57
F75.999992
sS'outside_temperature'
p58
F90.7
sS'$timestamp'
p59
S'2015-05-06T17:24:38.585977'
p60
sa(dp61
S'trans_time'
p62
I00
sS'ac_state'
p63
I00
sS'total_run_time_home'
p64
I0
sS'total_run_time_away'
p65
I0
sS'total_trans_time'
p66
I0
sS'away'
p67
I00
sS'target_type'
p68
Vcool
p69
sS'current_temperature'
p70
F77.88199999999999
sS'total_run_time'
p71
I0
sS'target_temperature'
p72
F75.999992
sS'outside_temperature'
p73
F90.7
sS'$timestamp'
p74
S'2015-05-06T17:24:57.970071'
p75
sa(dp76
S'trans_time'
p77
I00
sS'ac_state'
p78
I00
sS'total_run_time_home'
p79
I0
sS'total_run_time_away'
p80
I0
sS'total_trans_time'
p81
I0
sS'away'
p82
I00
sS'target_type'
p83
Vcool
p84
sS'current_temperature'
p85
F77.88199999999999
sS'total_run_time'
p86
I0
sS'target_temperature'
p87
F73.999994
sS'outside_temperature'
p88
F90.7
sS'$timestamp'
p89
S'2015-05-06T17:25:16.337003'
p90
sa(dp91
S'trans_time'
p92
I00
sS'ac_state'
p93
I01
sS'total_run_time_home'
p94
I0
sS'total_run_time_away'
p95
I0
sS'total_trans_time'
p96
I0
sS'away'
p97
I01
sS'target_type'
p98
Vcool
p99
sS'current_temperature'
p100
F77.432
sS'total_run_time'
p101
I0
sS'target_temperature'
p102
F84.391628
sS'outside_temperature'
p103
F90.7
sS'$timestamp'
p104
S'2015-05-06T17:25:34.000534'
p105
sa(dp106
S'trans_time'
p107
I00
sS'ac_state'
p108
I00
sS'total_run_time_home'
p109
F0.24060736666666666
sS'total_run_time_away'
p110
I0
sS'total_trans_time'
p111
I0
sS'away'
p112
I00
sS'target_type'
p113
Vcool
p114
sS'current_temperature'
p115
F77.432
sS'total_run_time'
p116
F0.24060736666666666
sS'target_temperature'
p117
F75.999992
sS'outside_temperature'
p118
F90.7
sS'$timestamp'
p119
S'2015-05-06T17:25:48.436976'
p120
sa(dp121
S'trans_time'
p122
I00
sS'ac_state'
p123
I00
sS'total_run_time_home'
p124
F0.24060736666666666
sS'total_run_time_away'
p125
I0
sS'total_trans_time'
p126
I0
sS'away'
p127
I00
sS'target_type'
p128
Vcool
p129
sS'current_temperature'
p130
F77.432
sS'total_run_time'
p131
F0.24060736666666666
sS'target_temperature'
p132
F75.999992
sS'outside_temperature'
p133
F90.7
sS'$timestamp'
p134
S'2015-05-06T17:26:09.843651'
p135
sa(dp136
S'trans_time'
p137
I00
sS'ac_state'
p138
I00
sS'total_run_time_home'
p139
F0.24060736666666666
sS'total_run_time_away'
p140
I0
sS'total_trans_time'
p141
I0
sS'away'
p142
I00
sS'target_type'
p143
Vcool
p144
sS'current_temperature'
p145
F77.432
sS'total_run_time'
p146
F0.24060736666666666
sS'target_temperature'
p147
F75.999992
sS'outside_temperature'
p148
F90.7
sS'$timestamp'
p149
S'2015-05-06T17:26:30.675391'
p150
sa(dp151
S'trans_time'
p152
I00
sS'ac_state'
p153
I01
sS'total_run_time_home'
p154
F0.24060736666666666
sS'total_run_time_away'
p155
I0
sS'total_trans_time'
p156
I0
sS'away'
p157
I00
sS'target_type'
p158
Vcool
p159
sS'current_temperature'
p160
F77.432
sS'total_run_time'
p161
F0.24060736666666666
sS'target_temperature'
p162
F75.999992
sS'outside_temperature'
p163
F90.7
sS'$timestamp'
p164
S'2015-05-06T17:28:14.734525'
p165
sa(dp166
S'trans_time'
p167
I00
sS'ac_state'
p168
I01
sS'total_run_time_home'
p169
F0.5175644
sS'total_run_time_away'
p170
I0
sS'total_trans_time'
p171
I0
sS'away'
p172
I00
sS'target_type'
p173
Vcool
p174
sS'current_temperature'
p175
F77.432
sS'total_run_time'
p176
F0.5175644
sS'target_temperature'
p177
F75.999992
sS'outside_temperature'
p178
F90.7
sS'$timestamp'
p179
S'2015-05-06T17:28:31.351947'
p180
sa(dp181
S'trans_time'
p182
I00
sS'ac_state'
p183
I01
sS'total_run_time_home'
p184
F0.8120552666666667
sS'total_run_time_away'
p185
I0
sS'total_trans_time'
p186
I0
sS'away'
p187
I00
sS'target_type'
p188
Vcool
p189
sS'current_temperature'
p190
F77.432
sS'total_run_time'
p191
F0.8120552666666667
sS'target_temperature'
p192
F75.999992
sS'outside_temperature'
p193
F90.7
sS'$timestamp'
p194
S'2015-05-06T17:28:49.021399'
p195
sa(dp196
S'trans_time'
p197
I00
sS'ac_state'
p198
I00
sS'total_run_time_home'
p199
F3.8024878499999994
sS'total_run_time_away'
p200
I0
sS'total_trans_time'
p201
I0
sS'away'
p202
I00
sS'target_type'
p203
Vcool
p204
sS'current_temperature'
p205
F77.612
sS'total_run_time'
p206
F3.8024878499999994
sS'target_temperature'
p207
F78.999998
sS'outside_temperature'
p208
F90.7
sS'$timestamp'
p209
S'2015-05-06T17:31:48.447354'
p210
sa(dp211
S'trans_time'
p212
I00
sS'ac_state'
p213
I00
sS'total_run_time_home'
p214
F3.8024878499999994
sS'total_run_time_away'
p215
I0
sS'total_trans_time'
p216
I0
sS'away'
p217
I00
sS'target_type'
p218
Vcool
p219
sS'current_temperature'
p220
F77.612
sS'total_run_time'
p221
F3.8024878499999994
sS'target_temperature'
p222
F78.999998
sS'outside_temperature'
p223
F90.7
sS'$timestamp'
p224
S'2015-05-06T17:33:55.314633'
p225
sa(dp226
S'trans_time'
p227
I00
sS'ac_state'
p228
I00
sS'total_run_time_home'
p229
F3.8024878499999994
sS'total_run_time_away'
p230
I0
sS'total_trans_time'
p231
I0
sS'away'
p232
I00
sS'target_type'
p233
Vcool
p234
sS'current_temperature'
p235
F78.53
sS'total_run_time'
p236
F3.8024878499999994
sS'target_temperature'
p237
F78.999998
sS'outside_temperature'
p238
F90.7
sS'$timestamp'
p239
S'2015-05-06T17:34:48.703199'
p240
sa(dp241
S'trans_time'
p242
I00
sS'ac_state'
p243
I00
sS'total_run_time_home'
p244
F3.8024878499999994
sS'total_run_time_away'
p245
I0
sS'total_trans_time'
p246
I0
sS'away'
p247
I00
sS'target_type'
p248
Vcool
p249
sS'current_temperature'
p250
F78.53
sS'total_run_time'
p251
F3.8024878499999994
sS'target_temperature'
p252
F78.999998
sS'outside_temperature'
p253
F90.7
sS'$timestamp'
p254
S'2015-05-06T17:37:48.454170'
p255
sa(dp256
S'trans_time'
p257
I00
sS'ac_state'
p258
I00
sS'total_run_time_home'
p259
F3.8024878499999994
sS'total_run_time_away'
p260
I0
sS'total_trans_time'
p261
I0
sS'away'
p262
I00
sS'target_type'
p263
Vcool
p264
sS'current_temperature'
p265
F78.53
sS'total_run_time'
p266
F3.8024878499999994
sS'target_temperature'
p267
F78.999998
sS'outside_temperature'
p268
F89.6
sS'$timestamp'
p269
S'2015-05-06T17:40:48.612347'
p270
sa(dp271
S'trans_time'
p272
I00
sS'ac_state'
p273
I00
sS'total_run_time_home'
p274
F3.8024878499999994
sS'total_run_time_away'
p275
I0
sS'total_trans_time'
p276
I0
sS'away'
p277
I00
sS'target_type'
p278
Vcool
p279
sS'current_temperature'
p280
F79.898
sS'total_run_time'
p281
F3.8024878499999994
sS'target_temperature'
p282
F78.999998
sS'outside_temperature'
p283
F89.6
sS'$timestamp'
p284
S'2015-05-06T17:43:48.473286'
p285
sa(dp286
S'trans_time'
p287
I00
sS'ac_state'
p288
I00
sS'total_run_time_home'
p289
F3.8024878499999994
sS'total_run_time_away'
p290
I0
sS'total_trans_time'
p291
I0
sS'away'
p292
I00
sS'target_type'
p293
Vcool
p294
sS'current_temperature'
p295
F79.898
sS'total_run_time'
p296
F3.8024878499999994
sS'target_temperature'
p297
F80.000006
sS'outside_temperature'
p298
F89.6
sS'$timestamp'
p299
S'2015-05-06T17:46:11.753889'
p300
sa(dp301
S'trans_time'
p302
I00
sS'ac_state'
p303
I00
sS'total_run_time_home'
p304
F3.8024878499999994
sS'total_run_time_away'
p305
I0
sS'total_trans_time'
p306
I0
sS'away'
p307
I00
sS'target_type'
p308
Vcool
p309
sS'current_temperature'
p310
F79.898
sS'total_run_time'
p311
F3.8024878499999994
sS'target_temperature'
p312
F80.000006
sS'outside_temperature'
p313
F89.6
sS'$timestamp'
p314
S'2015-05-06T17:46:49.016529'
p315
sa(dp316
S'trans_time'
p317
I00
sS'ac_state'
p318
I00
sS'total_run_time_home'
p319
F3.8024878499999994
sS'total_run_time_away'
p320
I0
sS'total_trans_time'
p321
I0
sS'away'
p322
I00
sS'target_type'
p323
Vcool
p324
sS'current_temperature'
p325
F79.898
sS'total_run_time'
p326
F3.8024878499999994
sS'target_temperature'
p327
F80.000006
sS'outside_temperature'
p328
F89.6
sS'$timestamp'
p329
S'2015-05-06T17:49:48.463421'
p330
sa(dp331
S'trans_time'
p332
I00
sS'ac_state'
p333
I00
sS'total_run_time_home'
p334
F3.8024878499999994
sS'total_run_time_away'
p335
I0
sS'total_trans_time'
p336
I0
sS'away'
p337
I00
sS'target_type'
p338
Vcool
p339
sS'current_temperature'
p340
F79.898
sS'total_run_time'
p341
F3.8024878499999994
sS'target_temperature'
p342
F80.000006
sS'outside_temperature'
p343
F89.6
sS'$timestamp'
p344
S'2015-05-06T17:52:48.631286'
p345
sa(dp346
S'trans_time'
p347
I00
sS'ac_state'
p348
I00
sS'total_run_time_home'
p349
F3.8024878499999994
sS'total_run_time_away'
p350
I0
sS'total_trans_time'
p351
I0
sS'away'
p352
I01
sS'target_type'
p353
Vcool
p354
sS'current_temperature'
p355
F79.898
sS'total_run_time'
p356
F3.8024878499999994
sS'target_temperature'
p357
F84.391628
sS'outside_temperature'
p358
F89.6
sS'$timestamp'
p359
S'2015-05-06T17:55:48.448667'
p360
sa(dp361
S'trans_time'
p362
I00
sS'ac_state'
p363
I00
sS'total_run_time_home'
p364
F3.8024878499999994
sS'total_run_time_away'
p365
I0
sS'total_trans_time'
p366
I0
sS'away'
p367
I01
sS'target_type'
p368
Vcool
p369
sS'current_temperature'
p370
F79.898
sS'total_run_time'
p371
F3.8024878499999994
sS'target_temperature'
p372
F84.391628
sS'outside_temperature'
p373
F90.7
sS'$timestamp'
p374
S'2015-05-06T17:58:48.660554'
p375
sa(dp376
S'trans_time'
p377
I00
sS'ac_state'
p378
I00
sS'total_run_time_home'
p379
F3.8024878499999994
sS'total_run_time_away'
p380
I0
sS'total_trans_time'
p381
I0
sS'away'
p382
I01
sS'target_type'
p383
Vcool
p384
sS'current_temperature'
p385
F79.898
sS'total_run_time'
p386
F3.8024878499999994
sS'target_temperature'
p387
F84.391628
sS'outside_temperature'
p388
F90.7
sS'$timestamp'
p389
S'2015-05-06T18:01:48.467210'
p390
sa(dp391
S'trans_time'
p392
I00
sS'ac_state'
p393
I00
sS'total_run_time_home'
p394
F3.8024878499999994
sS'total_run_time_away'
p395
I0
sS'total_trans_time'
p396
I0
sS'away'
p397
I01
sS'target_type'
p398
Vcool
p399
sS'current_temperature'
p400
F79.898
sS'total_run_time'
p401
F3.8024878499999994
sS'target_temperature'
p402
F84.391628
sS'outside_temperature'
p403
F90.7
sS'$timestamp'
p404
S'2015-05-06T18:04:49.064434'
p405
sa(dp406
S'trans_time'
p407
I00
sS'ac_state'
p408
I00
sS'total_run_time_home'
p409
F3.8024878499999994
sS'total_run_time_away'
p410
I0
sS'total_trans_time'
p411
I0
sS'away'
p412
I01
sS'target_type'
p413
Vcool
p414
sS'current_temperature'
p415
F79.898
sS'total_run_time'
p416
F3.8024878499999994
sS'target_temperature'
p417
F84.391628
sS'outside_temperature'
p418
F90.7
sS'$timestamp'
p419
S'2015-05-06T18:07:48.462322'
p420
sa(dp421
S'trans_time'
p422
I00
sS'ac_state'
p423
I00
sS'total_run_time_home'
p424
F3.8024878499999994
sS'total_run_time_away'
p425
I0
sS'total_trans_time'
p426
I0
sS'away'
p427
I01
sS'target_type'
p428
Vcool
p429
sS'current_temperature'
p430
F79.898
sS'total_run_time'
p431
F3.8024878499999994
sS'target_temperature'
p432
F84.391628
sS'outside_temperature'
p433
F86.7
sS'$timestamp'
p434
S'2015-05-06T18:10:05.970975'
p435
sa(dp436
S'trans_time'
p437
I00
sS'ac_state'
p438
I00
sS'total_run_time_home'
p439
F3.8024878499999994
sS'total_run_time_away'
p440
I0
sS'total_trans_time'
p441
I0
sS'away'
p442
I00
sS'target_type'
p443
Vcool
p444
sS'current_temperature'
p445
F80.798
sS'total_run_time'
p446
F3.8024878499999994
sS'target_temperature'
p447
F80.000006
sS'outside_temperature'
p448
F86.7
sS'$timestamp'
p449
S'2015-05-06T18:10:48.609231'
p450
sa(dp451
S'trans_time'
p452
I00
sS'ac_state'
p453
I00
sS'total_run_time_home'
p454
F3.8024878499999994
sS'total_run_time_away'
p455
I0
sS'total_trans_time'
p456
I0
sS'away'
p457
I00
sS'target_type'
p458
Vcool
p459
sS'current_temperature'
p460
F80.798
sS'total_run_time'
p461
F3.8024878499999994
sS'target_temperature'
p462
F80.000006
sS'outside_temperature'
p463
F86.7
sS'$timestamp'
p464
S'2015-05-06T18:13:48.468066'
p465
sa(dp466
S'trans_time'
p467
I00
sS'ac_state'
p468
I00
sS'total_run_time_home'
p469
F3.8024878499999994
sS'total_run_time_away'
p470
I0
sS'total_trans_time'
p471
I0
sS'away'
p472
I00
sS'target_type'
p473
Vcool
p474
sS'current_temperature'
p475
F80.798
sS'total_run_time'
p476
F3.8024878499999994
sS'target_temperature'
p477
F80.000006
sS'outside_temperature'
p478
F86.7
sS'$timestamp'
p479
S'2015-05-06T18:16:48.721930'
p480
sa(dp481
S'trans_time'
p482
I00
sS'ac_state'
p483
I01
sS'total_run_time_home'
p484
F3.8024878499999994
sS'total_run_time_away'
p485
I0
sS'total_trans_time'
p486
I0
sS'away'
p487
I00
sS'target_type'
p488
Vcool
p489
sS'current_temperature'
p490
F80.798
sS'total_run_time'
p491
F3.8024878499999994
sS'target_temperature'
p492
F80.000006
sS'outside_temperature'
p493
F86.7
sS'$timestamp'
p494
S'2015-05-06T18:19:48.501117'
p495
sa(dp496
S'trans_time'
p497
I00
sS'ac_state'
p498
I01
sS'total_run_time_home'
p499
F6.805266133333333
sS'total_run_time_away'
p500
I0
sS'total_trans_time'
p501
I0
sS'away'
p502
I00
sS'target_type'
p503
Vcool
p504
sS'current_temperature'
p505
F80.798
sS'total_run_time'
p506
F6.805266133333333
sS'target_temperature'
p507
F80.000006
sS'outside_temperature'
p508
F84.0
sS'$timestamp'
p509
S'2015-05-06T18:22:48.667814'
p510
sa(dp511
S'trans_time'
p512
I00
sS'ac_state'
p513
I01
sS'total_run_time_home'
p514
F9.801705266666666
sS'total_run_time_away'
p515
I0
sS'total_trans_time'
p516
I0
sS'away'
p517
I00
sS'target_type'
p518
Vcool
p519
sS'current_temperature'
p520
F80.042
sS'total_run_time'
p521
F9.801705266666666
sS'target_temperature'
p522
F80.000006
sS'outside_temperature'
p523
F84.0
sS'$timestamp'
p524
S'2015-05-06T18:25:48.454162'
p525
sa(dp526
S'trans_time'
p527
I00
sS'ac_state'
p528
I00
sS'total_run_time_home'
p529
F12.812422016666666
sS'total_run_time_away'
p530
I0
sS'total_trans_time'
p531
I0
sS'away'
p532
I00
sS'target_type'
p533
Vcool
p534
sS'current_temperature'
p535
F78.998
sS'total_run_time'
p536
F12.812422016666666
sS'target_temperature'
p537
F80.000006
sS'outside_temperature'
p538
F83.5
sS'$timestamp'
p539
S'2015-05-06T18:28:49.097167'
p540
sa(dp541
S'trans_time'
p542
I00
sS'ac_state'
p543
I00
sS'total_run_time_home'
p544
F12.812422016666666
sS'total_run_time_away'
p545
I0
sS'total_trans_time'
p546
I0
sS'away'
p547
I00
sS'target_type'
p548
Vcool
p549
sS'current_temperature'
p550
F78.998
sS'total_run_time'
p551
F12.812422016666666
sS'target_temperature'
p552
F80.000006
sS'outside_temperature'
p553
F83.5
sS'$timestamp'
p554
S'2015-05-06T18:31:48.459607'
p555
sa(dp556
S'trans_time'
p557
I00
sS'ac_state'
p558
I00
sS'total_run_time_home'
p559
F12.812422016666666
sS'total_run_time_away'
p560
I0
sS'total_trans_time'
p561
I0
sS'away'
p562
I00
sS'target_type'
p563
Vcool
p564
sS'current_temperature'
p565
F79.898
sS'total_run_time'
p566
F12.812422016666666
sS'target_temperature'
p567
F80.000006
sS'outside_temperature'
p568
F85.1
sS'$timestamp'
p569
S'2015-05-06T18:34:48.705142'
p570
sa(dp571
S'trans_time'
p572
I00
sS'ac_state'
p573
I00
sS'total_run_time_home'
p574
F12.812422016666666
sS'total_run_time_away'
p575
I0
sS'total_trans_time'
p576
I0
sS'away'
p577
I00
sS'target_type'
p578
Vcool
p579
sS'current_temperature'
p580
F79.898
sS'total_run_time'
p581
F12.812422016666666
sS'target_temperature'
p582
F80.000006
sS'outside_temperature'
p583
F85.1
sS'$timestamp'
p584
S'2015-05-06T18:37:48.471429'
p585
sa(dp586
S'trans_time'
p587
I00
sS'ac_state'
p588
I00
sS'total_run_time_home'
p589
F12.812422016666666
sS'total_run_time_away'
p590
I0
sS'total_trans_time'
p591
I0
sS'away'
p592
I00
sS'target_type'
p593
Vcool
p594
sS'current_temperature'
p595
F79.898
sS'total_run_time'
p596
F12.812422016666666
sS'target_temperature'
p597
F80.000006
sS'outside_temperature'
p598
F82.8
sS'$timestamp'
p599
S'2015-05-06T18:40:48.635138'
p600
sa(dp601
S'trans_time'
p602
I00
sS'ac_state'
p603
I00
sS'total_run_time_home'
p604
F12.812422016666666
sS'total_run_time_away'
p605
I0
sS'total_trans_time'
p606
I0
sS'away'
p607
I00
sS'target_type'
p608
Vcool
p609
sS'current_temperature'
p610
F79.898
sS'total_run_time'
p611
F12.812422016666666
sS'target_temperature'
p612
F80.000006
sS'outside_temperature'
p613
F82.6
sS'$timestamp'
p614
S'2015-05-06T18:40:50.779079'
p615
sa(dp616
S'trans_time'
p617
I00
sS'ac_state'
p618
I00
sS'total_run_time_home'
p619
F12.812422016666666
sS'total_run_time_away'
p620
I0
sS'total_trans_time'
p621
I0
sS'away'
p622
I00
sS'target_type'
p623
Vcool
p624
sS'current_temperature'
p625
F79.898
sS'total_run_time'
p626
F12.812422016666666
sS'target_temperature'
p627
F80.000006
sS'outside_temperature'
p628
F82.6
sS'$timestamp'
p629
S'2015-05-06T18:42:49.777164'
p630
sa(dp631
S'trans_time'
p632
I00
sS'ac_state'
p633
I00
sS'total_run_time_home'
p634
F12.812422016666666
sS'total_run_time_away'
p635
I0
sS'total_trans_time'
p636
I0
sS'away'
p637
I00
sS'target_type'
p638
Vcool
p639
sS'current_temperature'
p640
F79.898
sS'total_run_time'
p641
F12.812422016666666
sS'target_temperature'
p642
F80.000006
sS'outside_temperature'
p643
F82.6
sS'$timestamp'
p644
S'2015-05-06T18:44:49.799334'
p645
sa(dp646
S'trans_time'
p647
I00
sS'ac_state'
p648
I00
sS'total_run_time_home'
p649
F12.812422016666666
sS'total_run_time_away'
p650
I0
sS'total_trans_time'
p651
I0
sS'away'
p652
I00
sS'target_type'
p653
Vcool
p654
sS'current_temperature'
p655
F79.898
sS'total_run_time'
p656
F12.812422016666666
sS'target_temperature'
p657
F80.000006
sS'outside_temperature'
p658
F82.6
sS'$timestamp'
p659
S'2015-05-06T18:46:50.079802'
p660
sa(dp661
S'trans_time'
p662
I00
sS'ac_state'
p663
I01
sS'total_run_time_home'
p664
F12.812422016666666
sS'total_run_time_away'
p665
I0
sS'total_trans_time'
p666
I0
sS'away'
p667
I00
sS'target_type'
p668
Vcool
p669
sS'current_temperature'
p670
F81.032
sS'total_run_time'
p671
F12.812422016666666
sS'target_temperature'
p672
F80.000006
sS'outside_temperature'
p673
F82.6
sS'$timestamp'
p674
S'2015-05-06T18:48:49.780383'
p675
sa(dp676
S'trans_time'
p677
I00
sS'ac_state'
p678
I01
sS'total_run_time_home'
p679
F14.812440633333333
sS'total_run_time_away'
p680
I0
sS'total_trans_time'
p681
I0
sS'away'
p682
I00
sS'target_type'
p683
Vcool
p684
sS'current_temperature'
p685
F81.032
sS'total_run_time'
p686
F14.812440633333333
sS'target_temperature'
p687
F80.000006
sS'outside_temperature'
p688
F82.6
sS'$timestamp'
p689
S'2015-05-06T18:50:49.781500'
p690
sa(dp691
S'trans_time'
p692
I00
sS'ac_state'
p693
I01
sS'total_run_time_home'
p694
F16.8164176
sS'total_run_time_away'
p695
I0
sS'total_trans_time'
p696
I0
sS'away'
p697
I00
sS'target_type'
p698
Vcool
p699
sS'current_temperature'
p700
F81.032
sS'total_run_time'
p701
F16.8164176
sS'target_temperature'
p702
F80.000006
sS'outside_temperature'
p703
F82.6
sS'$timestamp'
p704
S'2015-05-06T18:52:50.020118'
p705
sa(dp706
S'trans_time'
p707
I00
sS'ac_state'
p708
I01
sS'total_run_time_home'
p709
F18.812962116666668
sS'total_run_time_away'
p710
I0
sS'total_trans_time'
p711
I0
sS'away'
p712
I00
sS'target_type'
p713
Vcool
p714
sS'current_temperature'
p715
F80.474
sS'total_run_time'
p716
F18.812962116666668
sS'target_temperature'
p717
F80.000006
sS'outside_temperature'
p718
F82.6
sS'$timestamp'
p719
S'2015-05-06T18:54:49.812789'
p720
sa(dp721
S'trans_time'
p722
I00
sS'ac_state'
p723
I00
sS'total_run_time_home'
p724
F20.812102083333336
sS'total_run_time_away'
p725
I0
sS'total_trans_time'
p726
I0
sS'away'
p727
I00
sS'target_type'
p728
Vcool
p729
sS'current_temperature'
p730
F79.088
sS'total_run_time'
p731
F20.812102083333336
sS'target_temperature'
p732
F80.000006
sS'outside_temperature'
p733
F82.6
sS'$timestamp'
p734
S'2015-05-06T18:56:49.761187'
p735
sa(dp736
S'trans_time'
p737
I00
sS'ac_state'
p738
I00
sS'total_run_time_home'
p739
F20.812102083333336
sS'total_run_time_away'
p740
I0
sS'total_trans_time'
p741
I0
sS'away'
p742
I00
sS'target_type'
p743
Vcool
p744
sS'current_temperature'
p745
F79.088
sS'total_run_time'
p746
F20.812102083333336
sS'target_temperature'
p747
F80.000006
sS'outside_temperature'
p748
F82.6
sS'$timestamp'
p749
S'2015-05-06T18:58:50.311204'
p750
sa(dp751
S'trans_time'
p752
I00
sS'ac_state'
p753
I00
sS'total_run_time_home'
p754
F20.812102083333336
sS'total_run_time_away'
p755
I0
sS'total_trans_time'
p756
I0
sS'away'
p757
I00
sS'target_type'
p758
Vcool
p759
sS'current_temperature'
p760
F79.088
sS'total_run_time'
p761
F20.812102083333336
sS'target_temperature'
p762
F78.20060000000001
sS'outside_temperature'
p763
F82.6
sS'$timestamp'
p764
S'2015-05-06T19:00:49.799411'
p765
sa(dp766
S'trans_time'
p767
I00
sS'ac_state'
p768
I01
sS'total_run_time_home'
p769
F20.812102083333336
sS'total_run_time_away'
p770
I0
sS'total_trans_time'
p771
I0
sS'away'
p772
I00
sS'target_type'
p773
Vcool
p774
sS'current_temperature'
p775
F79.088
sS'total_run_time'
p776
F20.812102083333336
sS'target_temperature'
p777
F78.20060000000001
sS'outside_temperature'
p778
F82.6
sS'$timestamp'
p779
S'2015-05-06T19:02:49.768992'
p780
sa(dp781
S'trans_time'
p782
I00
sS'ac_state'
p783
I01
sS'total_run_time_home'
p784
F22.826011216666668
sS'total_run_time_away'
p785
I0
sS'total_trans_time'
p786
I0
sS'away'
p787
I00
sS'target_type'
p788
Vcool
p789
sS'current_temperature'
p790
F79.088
sS'total_run_time'
p791
F22.826011216666668
sS'target_temperature'
p792
F78.20060000000001
sS'outside_temperature'
p793
F82.6
sS'$timestamp'
p794
S'2015-05-06T19:04:50.603540'
p795
sa(dp796
S'trans_time'
p797
I00
sS'ac_state'
p798
I01
sS'total_run_time_home'
p799
F24.81270595
sS'total_run_time_away'
p800
I0
sS'total_trans_time'
p801
I0
sS'away'
p802
I00
sS'target_type'
p803
Vcool
p804
sS'current_temperature'
p805
F79.088
sS'total_run_time'
p806
F24.81270595
sS'target_temperature'
p807
F78.20060000000001
sS'outside_temperature'
p808
F82.6
sS'$timestamp'
p809
S'2015-05-06T19:06:49.805224'
p810
sa(dp811
S'trans_time'
p812
I00
sS'ac_state'
p813
I01
sS'total_run_time_home'
p814
F26.8121538
sS'total_run_time_away'
p815
I0
sS'total_trans_time'
p816
I0
sS'away'
p817
I00
sS'target_type'
p818
Vcool
p819
sS'current_temperature'
p820
F79.088
sS'total_run_time'
p821
F26.8121538
sS'target_temperature'
p822
F78.20060000000001
sS'outside_temperature'
p823
F82.6
sS'$timestamp'
p824
S'2015-05-06T19:08:49.772095'
p825
sa(dp826
S'trans_time'
p827
I00
sS'ac_state'
p828
I00
sS'total_run_time_home'
p829
F28.8160355
sS'total_run_time_away'
p830
I0
sS'total_trans_time'
p831
I0
sS'away'
p832
I00
sS'target_type'
p833
Vcool
p834
sS'current_temperature'
p835
F78.404
sS'total_run_time'
p836
F28.8160355
sS'target_temperature'
p837
F78.20060000000001
sS'outside_temperature'
p838
F82.6
sS'$timestamp'
p839
S'2015-05-06T19:10:50.004997'
p840
sa(dp841
S'trans_time'
p842
I00
sS'ac_state'
p843
I00
sS'total_run_time_home'
p844
F28.8160355
sS'total_run_time_away'
p845
I0
sS'total_trans_time'
p846
I0
sS'away'
p847
I00
sS'target_type'
p848
Vcool
p849
sS'current_temperature'
p850
F78.404
sS'total_run_time'
p851
F28.8160355
sS'target_temperature'
p852
F78.20060000000001
sS'outside_temperature'
p853
F82.6
sS'$timestamp'
p854
S'2015-05-06T19:12:49.788823'
p855
sa(dp856
S'trans_time'
p857
I00
sS'ac_state'
p858
I00
sS'total_run_time_home'
p859
F28.8160355
sS'total_run_time_away'
p860
I0
sS'total_trans_time'
p861
I0
sS'away'
p862
I00
sS'target_type'
p863
Vcool
p864
sS'current_temperature'
p865
F78.404
sS'total_run_time'
p866
F28.8160355
sS'target_temperature'
p867
F78.20060000000001
sS'outside_temperature'
p868
F82.6
sS'$timestamp'
p869
S'2015-05-06T19:14:49.790056'
p870
sa(dp871
S'trans_time'
p872
I00
sS'ac_state'
p873
I00
sS'total_run_time_home'
p874
F28.8160355
sS'total_run_time_away'
p875
I0
sS'total_trans_time'
p876
I0
sS'away'
p877
I00
sS'target_type'
p878
Vcool
p879
sS'current_temperature'
p880
F78.404
sS'total_run_time'
p881
F28.8160355
sS'target_temperature'
p882
F78.20060000000001
sS'outside_temperature'
p883
F82.6
sS'$timestamp'
p884
S'2015-05-06T19:16:49.968222'
p885
sa(dp886
S'trans_time'
p887
I00
sS'ac_state'
p888
I00
sS'total_run_time_home'
p889
F28.8160355
sS'total_run_time_away'
p890
I0
sS'total_trans_time'
p891
I0
sS'away'
p892
I00
sS'target_type'
p893
Vcool
p894
sS'current_temperature'
p895
F78.404
sS'total_run_time'
p896
F28.8160355
sS'target_temperature'
p897
F78.20060000000001
sS'outside_temperature'
p898
F82.6
sS'$timestamp'
p899
S'2015-05-06T19:18:49.764308'
p900
sa(dp901
S'trans_time'
p902
I00
sS'ac_state'
p903
I00
sS'total_run_time_home'
p904
F28.8160355
sS'total_run_time_away'
p905
I0
sS'total_trans_time'
p906
I0
sS'away'
p907
I00
sS'target_type'
p908
Vcool
p909
sS'current_temperature'
p910
F78.404
sS'total_run_time'
p911
F28.8160355
sS'target_temperature'
p912
F78.20060000000001
sS'outside_temperature'
p913
F82.6
sS'$timestamp'
p914
S'2015-05-06T19:20:49.792298'
p915
sa(dp916
S'trans_time'
p917
I00
sS'ac_state'
p918
I01
sS'total_run_time_home'
p919
F28.8160355
sS'total_run_time_away'
p920
I0
sS'total_trans_time'
p921
I0
sS'away'
p922
I00
sS'target_type'
p923
Vcool
p924
sS'current_temperature'
p925
F79.232
sS'total_run_time'
p926
F28.8160355
sS'target_temperature'
p927
F78.20060000000001
sS'outside_temperature'
p928
F79.9
sS'$timestamp'
p929
S'2015-05-06T19:22:50.059365'
p930
sa(dp931
S'trans_time'
p932
I00
sS'ac_state'
p933
I01
sS'total_run_time_home'
p934
F30.81132295
sS'total_run_time_away'
p935
I0
sS'total_trans_time'
p936
I0
sS'away'
p937
I00
sS'target_type'
p938
Vcool
p939
sS'current_temperature'
p940
F79.232
sS'total_run_time'
p941
F30.81132295
sS'target_temperature'
p942
F78.20060000000001
sS'outside_temperature'
p943
F79.9
sS'$timestamp'
p944
S'2015-05-06T19:24:49.776612'
p945
sa(dp946
S'trans_time'
p947
I00
sS'ac_state'
p948
I01
sS'total_run_time_home'
p949
F32.81157915
sS'total_run_time_away'
p950
I0
sS'total_trans_time'
p951
I0
sS'away'
p952
I00
sS'target_type'
p953
Vcool
p954
sS'current_temperature'
p955
F79.232
sS'total_run_time'
p956
F32.81157915
sS'target_temperature'
p957
F78.20060000000001
sS'outside_temperature'
p958
F79.9
sS'$timestamp'
p959
S'2015-05-06T19:26:49.791984'
p960
sa(dp961
S'trans_time'
p962
I00
sS'ac_state'
p963
I00
sS'total_run_time_home'
p964
F34.816275516666664
sS'total_run_time_away'
p965
I0
sS'total_trans_time'
p966
I0
sS'away'
p967
I00
sS'target_type'
p968
Vcool
p969
sS'current_temperature'
p970
F77.81
sS'total_run_time'
p971
F34.816275516666664
sS'target_temperature'
p972
F78.20060000000001
sS'outside_temperature'
p973
F79.8
sS'$timestamp'
p974
S'2015-05-06T19:28:50.073766'
p975
sa(dp976
S'trans_time'
p977
I00
sS'ac_state'
p978
I00
sS'total_run_time_home'
p979
F34.816275516666664
sS'total_run_time_away'
p980
I0
sS'total_trans_time'
p981
I0
sS'away'
p982
I00
sS'target_type'
p983
Vcool
p984
sS'current_temperature'
p985
F77.414
sS'total_run_time'
p986
F34.816275516666664
sS'target_temperature'
p987
F78.20060000000001
sS'outside_temperature'
p988
F79.8
sS'$timestamp'
p989
S'2015-05-06T19:30:49.730740'
p990
sa(dp991
S'trans_time'
p992
I00
sS'ac_state'
p993
I00
sS'total_run_time_home'
p994
F34.816275516666664
sS'total_run_time_away'
p995
I0
sS'total_trans_time'
p996
I0
sS'away'
p997
I00
sS'target_type'
p998
Vcool
p999
sS'current_temperature'
p1000
F77.414
sS'total_run_time'
p1001
F34.816275516666664
sS'target_temperature'
p1002
F78.20060000000001
sS'outside_temperature'
p1003
F79.8
sS'$timestamp'
p1004
S'2015-05-06T19:32:49.783904'
p1005
sa(dp1006
S'trans_time'
p1007
I00
sS'ac_state'
p1008
I00
sS'total_run_time_home'
p1009
F34.816275516666664
sS'total_run_time_away'
p1010
I0
sS'total_trans_time'
p1011
I0
sS'away'
p1012
I00
sS'target_type'
p1013
Vcool
p1014
sS'current_temperature'
p1015
F77.414
sS'total_run_time'
p1016
F34.816275516666664
sS'target_temperature'
p1017
F78.20060000000001
sS'outside_temperature'
p1018
F79.4
sS'$timestamp'
p1019
S'2015-05-06T19:34:50.438310'
p1020
sa(dp1021
S'trans_time'
p1022
I00
sS'ac_state'
p1023
I00
sS'total_run_time_home'
p1024
F34.816275516666664
sS'total_run_time_away'
p1025
I0
sS'total_trans_time'
p1026
I0
sS'away'
p1027
I00
sS'target_type'
p1028
Vcool
p1029
sS'current_temperature'
p1030
F77.414
sS'total_run_time'
p1031
F34.816275516666664
sS'target_temperature'
p1032
F78.20060000000001
sS'outside_temperature'
p1033
F79.4
sS'$timestamp'
p1034
S'2015-05-06T19:36:49.778499'
p1035
sa(dp1036
S'trans_time'
p1037
I00
sS'ac_state'
p1038
I00
sS'total_run_time_home'
p1039
F34.816275516666664
sS'total_run_time_away'
p1040
I0
sS'total_trans_time'
p1041
I0
sS'away'
p1042
I00
sS'target_type'
p1043
Vcool
p1044
sS'current_temperature'
p1045
F77.414
sS'total_run_time'
p1046
F34.816275516666664
sS'target_temperature'
p1047
F78.20060000000001
sS'outside_temperature'
p1048
F79.4
sS'$timestamp'
p1049
S'2015-05-06T19:38:49.789104'
p1050
sa(dp1051
S'trans_time'
p1052
I00
sS'ac_state'
p1053
I00
sS'total_run_time_home'
p1054
F34.816275516666664
sS'total_run_time_away'
p1055
I0
sS'total_trans_time'
p1056
I0
sS'away'
p1057
I00
sS'target_type'
p1058
Vcool
p1059
sS'current_temperature'
p1060
F77.414
sS'total_run_time'
p1061
F34.816275516666664
sS'target_temperature'
p1062
F78.20060000000001
sS'outside_temperature'
p1063
F79.3
sS'$timestamp'
p1064
S'2015-05-06T19:40:49.991636'
p1065
sa(dp1066
S'trans_time'
p1067
I00
sS'ac_state'
p1068
I01
sS'total_run_time_home'
p1069
F34.816275516666664
sS'total_run_time_away'
p1070
I0
sS'total_trans_time'
p1071
I0
sS'away'
p1072
I00
sS'target_type'
p1073
Vcool
p1074
sS'current_temperature'
p1075
F79.268
sS'total_run_time'
p1076
F34.816275516666664
sS'target_temperature'
p1077
F78.20060000000001
sS'outside_temperature'
p1078
F79.3
sS'$timestamp'
p1079
S'2015-05-06T19:42:49.803916'
p1080
sa(dp1081
S'trans_time'
p1082
I00
sS'ac_state'
p1083
I01
sS'total_run_time_home'
p1084
F36.8156283
sS'total_run_time_away'
p1085
I0
sS'total_trans_time'
p1086
I0
sS'away'
p1087
I00
sS'target_type'
p1088
Vcool
p1089
sS'current_temperature'
p1090
F79.268
sS'total_run_time'
p1091
F36.8156283
sS'target_temperature'
p1092
F78.20060000000001
sS'outside_temperature'
p1093
F79.3
sS'$timestamp'
p1094
S'2015-05-06T19:44:49.765083'
p1095
sa(dp1096
S'trans_time'
p1097
I00
sS'ac_state'
p1098
I01
sS'total_run_time_home'
p1099
F38.82016828333333
sS'total_run_time_away'
p1100
I0
sS'total_trans_time'
p1101
I0
sS'away'
p1102
I00
sS'target_type'
p1103
Vcool
p1104
sS'current_temperature'
p1105
F78.224
sS'total_run_time'
p1106
F38.82016828333333
sS'target_temperature'
p1107
F78.20060000000001
sS'outside_temperature'
p1108
F78.9
sS'$timestamp'
p1109
S'2015-05-06T19:46:50.037482'
p1110
sa(dp1111
S'trans_time'
p1112
I00
sS'ac_state'
p1113
I01
sS'total_run_time_home'
p1114
F40.815878016666666
sS'total_run_time_away'
p1115
I0
sS'total_trans_time'
p1116
I0
sS'away'
p1117
I00
sS'target_type'
p1118
Vcool
p1119
sS'current_temperature'
p1120
F78.224
sS'total_run_time'
p1121
F40.815878016666666
sS'target_temperature'
p1122
F78.20060000000001
sS'outside_temperature'
p1123
F78.9
sS'$timestamp'
p1124
S'2015-05-06T19:48:49.780066'
p1125
sa(dp1126
S'trans_time'
p1127
I00
sS'ac_state'
p1128
I01
sS'total_run_time_home'
p1129
F42.135742199999996
sS'total_run_time_away'
p1130
I0
sS'total_trans_time'
p1131
I0
sS'away'
p1132
I00
sS'target_type'
p1133
Vcool
p1134
sS'current_temperature'
p1135
F78.224
sS'total_run_time'
p1136
F42.135742199999996
sS'target_temperature'
p1137
F78.20060000000001
sS'outside_temperature'
p1138
F79.9
sS'$timestamp'
p1139
S'2015-05-06T19:50:08.971917'
p1140
sa(dp1141
S'trans_time'
p1142
I00
sS'ac_state'
p1143
I01
sS'total_run_time_home'
p1144
F42.81596093333333
sS'total_run_time_away'
p1145
I0
sS'total_trans_time'
p1146
I0
sS'away'
p1147
I00
sS'target_type'
p1148
Vcool
p1149
sS'current_temperature'
p1150
F78.224
sS'total_run_time'
p1151
F42.81596093333333
sS'target_temperature'
p1152
F78.20060000000001
sS'outside_temperature'
p1153
F78.9
sS'$timestamp'
p1154
S'2015-05-06T19:50:49.785041'
p1155
sa(dp1156
S'trans_time'
p1157
I00
sS'ac_state'
p1158
I00
sS'total_run_time_home'
p1159
F44.82534383333333
sS'total_run_time_away'
p1160
I0
sS'total_trans_time'
p1161
I0
sS'away'
p1162
I00
sS'target_type'
p1163
Vcool
p1164
sS'current_temperature'
p1165
F77.21600000000001
sS'total_run_time'
p1166
F44.82534383333333
sS'target_temperature'
p1167
F78.20060000000001
sS'outside_temperature'
p1168
F78.5
sS'$timestamp'
p1169
S'2015-05-06T19:52:50.348015'
p1170
sa(dp1171
S'trans_time'
p1172
I00
sS'ac_state'
p1173
I00
sS'total_run_time_home'
p1174
F44.82534383333333
sS'total_run_time_away'
p1175
I0
sS'total_trans_time'
p1176
I0
sS'away'
p1177
I00
sS'target_type'
p1178
Vcool
p1179
sS'current_temperature'
p1180
F77.21600000000001
sS'total_run_time'
p1181
F44.82534383333333
sS'target_temperature'
p1182
F78.20060000000001
sS'outside_temperature'
p1183
F78.6
sS'$timestamp'
p1184
S'2015-05-06T19:52:52.233255'
p1185
sa(dp1186
S'trans_time'
p1187
I00
sS'ac_state'
p1188
I00
sS'total_run_time_home'
p1189
F44.82534383333333
sS'total_run_time_away'
p1190
I0
sS'total_trans_time'
p1191
I0
sS'away'
p1192
I00
sS'target_type'
p1193
Vcool
p1194
sS'current_temperature'
p1195
F77.21600000000001
sS'total_run_time'
p1196
F44.82534383333333
sS'target_temperature'
p1197
F78.20060000000001
sS'outside_temperature'
p1198
F78.6
sS'$timestamp'
p1199
S'2015-05-06T19:54:51.614546'
p1200
sa(dp1201
S'trans_time'
p1202
I00
sS'ac_state'
p1203
I00
sS'total_run_time_home'
p1204
F44.82534383333333
sS'total_run_time_away'
p1205
I0
sS'total_trans_time'
p1206
I0
sS'away'
p1207
I00
sS'target_type'
p1208
Vcool
p1209
sS'current_temperature'
p1210
F77.21600000000001
sS'total_run_time'
p1211
F44.82534383333333
sS'target_temperature'
p1212
F78.20060000000001
sS'outside_temperature'
p1213
F78.6
sS'$timestamp'
p1214
S'2015-05-06T19:56:51.607954'
p1215
sa(dp1216
S'trans_time'
p1217
I00
sS'ac_state'
p1218
I00
sS'total_run_time_home'
p1219
F44.82534383333333
sS'total_run_time_away'
p1220
I0
sS'total_trans_time'
p1221
I0
sS'away'
p1222
I00
sS'target_type'
p1223
Vcool
p1224
sS'current_temperature'
p1225
F78.35
sS'total_run_time'
p1226
F44.82534383333333
sS'target_temperature'
p1227
F78.20060000000001
sS'outside_temperature'
p1228
F78.5
sS'$timestamp'
p1229
S'2015-05-06T19:58:51.811210'
p1230
sa(dp1231
S'trans_time'
p1232
I00
sS'ac_state'
p1233
I00
sS'total_run_time_home'
p1234
F44.82534383333333
sS'total_run_time_away'
p1235
I0
sS'total_trans_time'
p1236
I0
sS'away'
p1237
I00
sS'target_type'
p1238
Vcool
p1239
sS'current_temperature'
p1240
F78.35
sS'total_run_time'
p1241
F44.82534383333333
sS'target_temperature'
p1242
F78.20060000000001
sS'outside_temperature'
p1243
F78.5
sS'$timestamp'
p1244
S'2015-05-06T20:00:51.593415'
p1245
sa(dp1246
S'trans_time'
p1247
I00
sS'ac_state'
p1248
I00
sS'total_run_time_home'
p1249
F44.82534383333333
sS'total_run_time_away'
p1250
I0
sS'total_trans_time'
p1251
I0
sS'away'
p1252
I00
sS'target_type'
p1253
Vcool
p1254
sS'current_temperature'
p1255
F78.35
sS'total_run_time'
p1256
F44.82534383333333
sS'target_temperature'
p1257
F78.20060000000001
sS'outside_temperature'
p1258
F78.5
sS'$timestamp'
p1259
S'2015-05-06T20:02:51.599404'
p1260
sa(dp1261
S'trans_time'
p1262
I00
sS'ac_state'
p1263
I00
sS'total_run_time_home'
p1264
F44.82534383333333
sS'total_run_time_away'
p1265
I0
sS'total_trans_time'
p1266
I0
sS'away'
p1267
I00
sS'target_type'
p1268
Vcool
p1269
sS'current_temperature'
p1270
F78.35
sS'total_run_time'
p1271
F44.82534383333333
sS'target_temperature'
p1272
F78.20060000000001
sS'outside_temperature'
p1273
F78.5
sS'$timestamp'
p1274
S'2015-05-06T20:04:52.221394'
p1275
sa(dp1276
S'trans_time'
p1277
I00
sS'ac_state'
p1278
I01
sS'total_run_time_home'
p1279
F44.82534383333333
sS'total_run_time_away'
p1280
I0
sS'total_trans_time'
p1281
I0
sS'away'
p1282
I00
sS'target_type'
p1283
Vcool
p1284
sS'current_temperature'
p1285
F79.232
sS'total_run_time'
p1286
F44.82534383333333
sS'target_temperature'
p1287
F78.20060000000001
sS'outside_temperature'
p1288
F78.5
sS'$timestamp'
p1289
S'2015-05-06T20:06:51.585985'
p1290
sa(dp1291
S'trans_time'
p1292
I00
sS'ac_state'
p1293
I01
sS'total_run_time_home'
p1294
F46.82570373333333
sS'total_run_time_away'
p1295
I0
sS'total_trans_time'
p1296
I0
sS'away'
p1297
I00
sS'target_type'
p1298
Vcool
p1299
sS'current_temperature'
p1300
F79.232
sS'total_run_time'
p1301
F46.82570373333333
sS'target_temperature'
p1302
F78.20060000000001
sS'outside_temperature'
p1303
F78.5
sS'$timestamp'
p1304
S'2015-05-06T20:08:51.607579'
p1305
sa(dp1306
S'trans_time'
p1307
I00
sS'ac_state'
p1308
I01
sS'total_run_time_home'
p1309
F48.828652749999996
sS'total_run_time_away'
p1310
I0
sS'total_trans_time'
p1311
I0
sS'away'
p1312
I00
sS'target_type'
p1313
Vcool
p1314
sS'current_temperature'
p1315
F78.278
sS'total_run_time'
p1316
F48.828652749999996
sS'target_temperature'
p1317
F78.20060000000001
sS'outside_temperature'
p1318
F78.5
sS'$timestamp'
p1319
S'2015-05-06T20:10:51.784520'
p1320
sa(dp1321
S'trans_time'
p1322
I00
sS'ac_state'
p1323
I00
sS'total_run_time_home'
p1324
F50.82579964999999
sS'total_run_time_away'
p1325
I0
sS'total_trans_time'
p1326
I0
sS'away'
p1327
I00
sS'target_type'
p1328
Vcool
p1329
sS'current_temperature'
p1330
F78.278
sS'total_run_time'
p1331
F50.82579964999999
sS'target_temperature'
p1332
F78.20060000000001
sS'outside_temperature'
p1333
F78.5
sS'$timestamp'
p1334
S'2015-05-06T20:12:51.613334'
p1335
sa(dp1336
S'trans_time'
p1337
I00
sS'ac_state'
p1338
I00
sS'total_run_time_home'
p1339
F50.82579964999999
sS'total_run_time_away'
p1340
I0
sS'total_trans_time'
p1341
I0
sS'away'
p1342
I00
sS'target_type'
p1343
Vcool
p1344
sS'current_temperature'
p1345
F77.09
sS'total_run_time'
p1346
F50.82579964999999
sS'target_temperature'
p1347
F78.20060000000001
sS'outside_temperature'
p1348
F78.5
sS'$timestamp'
p1349
S'2015-05-06T20:14:51.590575'
p1350
sa(dp1351
S'trans_time'
p1352
I00
sS'ac_state'
p1353
I00
sS'total_run_time_home'
p1354
F50.82579964999999
sS'total_run_time_away'
p1355
I0
sS'total_trans_time'
p1356
I0
sS'away'
p1357
I00
sS'target_type'
p1358
Vcool
p1359
sS'current_temperature'
p1360
F77.09
sS'total_run_time'
p1361
F50.82579964999999
sS'target_temperature'
p1362
F78.20060000000001
sS'outside_temperature'
p1363
F78.5
sS'$timestamp'
p1364
S'2015-05-06T20:16:51.779073'
p1365
sa(dp1366
S'trans_time'
p1367
I00
sS'ac_state'
p1368
I00
sS'total_run_time_home'
p1369
F50.82579964999999
sS'total_run_time_away'
p1370
I0
sS'total_trans_time'
p1371
I0
sS'away'
p1372
I00
sS'target_type'
p1373
Vcool
p1374
sS'current_temperature'
p1375
F77.09
sS'total_run_time'
p1376
F50.82579964999999
sS'target_temperature'
p1377
F78.20060000000001
sS'outside_temperature'
p1378
F78.5
sS'$timestamp'
p1379
S'2015-05-06T20:18:51.587237'
p1380
sa(dp1381
S'trans_time'
p1382
I00
sS'ac_state'
p1383
I00
sS'total_run_time_home'
p1384
F50.82579964999999
sS'total_run_time_away'
p1385
I0
sS'total_trans_time'
p1386
I0
sS'away'
p1387
I00
sS'target_type'
p1388
Vcool
p1389
sS'current_temperature'
p1390
F77.09
sS'total_run_time'
p1391
F50.82579964999999
sS'target_temperature'
p1392
F78.20060000000001
sS'outside_temperature'
p1393
F78.5
sS'$timestamp'
p1394
S'2015-05-06T20:20:51.604756'
p1395
sa(dp1396
S'trans_time'
p1397
I00
sS'ac_state'
p1398
I00
sS'total_run_time_home'
p1399
F50.82579964999999
sS'total_run_time_away'
p1400
I0
sS'total_trans_time'
p1401
I0
sS'away'
p1402
I00
sS'target_type'
p1403
Vcool
p1404
sS'current_temperature'
p1405
F77.09
sS'total_run_time'
p1406
F50.82579964999999
sS'target_temperature'
p1407
F78.20060000000001
sS'outside_temperature'
p1408
F78.5
sS'$timestamp'
p1409
S'2015-05-06T20:22:51.807376'
p1410
sa(dp1411
S'trans_time'
p1412
I00
sS'ac_state'
p1413
I00
sS'total_run_time_home'
p1414
F50.82579964999999
sS'total_run_time_away'
p1415
I0
sS'total_trans_time'
p1416
I0
sS'away'
p1417
I00
sS'target_type'
p1418
Vcool
p1419
sS'current_temperature'
p1420
F77.09
sS'total_run_time'
p1421
F50.82579964999999
sS'target_temperature'
p1422
F78.20060000000001
sS'outside_temperature'
p1423
F78.5
sS'$timestamp'
p1424
S'2015-05-06T20:24:51.599699'
p1425
sa(dp1426
S'trans_time'
p1427
I00
sS'ac_state'
p1428
I00
sS'total_run_time_home'
p1429
F50.82579964999999
sS'total_run_time_away'
p1430
I0
sS'total_trans_time'
p1431
I0
sS'away'
p1432
I00
sS'target_type'
p1433
Vcool
p1434
sS'current_temperature'
p1435
F77.09
sS'total_run_time'
p1436
F50.82579964999999
sS'target_temperature'
p1437
F78.20060000000001
sS'outside_temperature'
p1438
F78.5
sS'$timestamp'
p1439
S'2015-05-06T20:26:51.572479'
p1440
sa(dp1441
S'trans_time'
p1442
I00
sS'ac_state'
p1443
I00
sS'total_run_time_home'
p1444
F50.82579964999999
sS'total_run_time_away'
p1445
I0
sS'total_trans_time'
p1446
I0
sS'away'
p1447
I00
sS'target_type'
p1448
Vcool
p1449
sS'current_temperature'
p1450
F77.09
sS'total_run_time'
p1451
F50.82579964999999
sS'target_temperature'
p1452
F78.20060000000001
sS'outside_temperature'
p1453
F78.5
sS'$timestamp'
p1454
S'2015-05-06T20:28:51.826463'
p1455
sa(dp1456
S'trans_time'
p1457
I00
sS'ac_state'
p1458
I00
sS'total_run_time_home'
p1459
F50.82579964999999
sS'total_run_time_away'
p1460
I0
sS'total_trans_time'
p1461
I0
sS'away'
p1462
I00
sS'target_type'
p1463
Vcool
p1464
sS'current_temperature'
p1465
F77.09
sS'total_run_time'
p1466
F50.82579964999999
sS'target_temperature'
p1467
F78.20060000000001
sS'outside_temperature'
p1468
F78.5
sS'$timestamp'
p1469
S'2015-05-06T20:30:51.588421'
p1470
sa(dp1471
S'trans_time'
p1472
I00
sS'ac_state'
p1473
I00
sS'total_run_time_home'
p1474
F50.82579964999999
sS'total_run_time_away'
p1475
I0
sS'total_trans_time'
p1476
I0
sS'away'
p1477
I00
sS'target_type'
p1478
Vcool
p1479
sS'current_temperature'
p1480
F77.09
sS'total_run_time'
p1481
F50.82579964999999
sS'target_temperature'
p1482
F78.20060000000001
sS'outside_temperature'
p1483
F78.5
sS'$timestamp'
p1484
S'2015-05-06T20:32:51.584653'
p1485
sa(dp1486
S'trans_time'
p1487
I00
sS'ac_state'
p1488
I00
sS'total_run_time_home'
p1489
F50.82579964999999
sS'total_run_time_away'
p1490
I0
sS'total_trans_time'
p1491
I0
sS'away'
p1492
I00
sS'target_type'
p1493
Vcool
p1494
sS'current_temperature'
p1495
F79.196
sS'total_run_time'
p1496
F50.82579964999999
sS'target_temperature'
p1497
F78.20060000000001
sS'outside_temperature'
p1498
F78.5
sS'$timestamp'
p1499
S'2015-05-06T20:34:51.795168'
p1500
sa(dp1501
S'trans_time'
p1502
I00
sS'ac_state'
p1503
I00
sS'total_run_time_home'
p1504
F50.82579964999999
sS'total_run_time_away'
p1505
I0
sS'total_trans_time'
p1506
I0
sS'away'
p1507
I00
sS'target_type'
p1508
Vcool
p1509
sS'current_temperature'
p1510
F79.196
sS'total_run_time'
p1511
F50.82579964999999
sS'target_temperature'
p1512
F78.20060000000001
sS'outside_temperature'
p1513
F78.5
sS'$timestamp'
p1514
S'2015-05-06T20:36:51.573106'
p1515
sa(dp1516
S'trans_time'
p1517
I00
sS'ac_state'
p1518
I01
sS'total_run_time_home'
p1519
F50.82579964999999
sS'total_run_time_away'
p1520
I0
sS'total_trans_time'
p1521
I0
sS'away'
p1522
I00
sS'target_type'
p1523
Vcool
p1524
sS'current_temperature'
p1525
F78.278
sS'total_run_time'
p1526
F50.82579964999999
sS'target_temperature'
p1527
F78.20060000000001
sS'outside_temperature'
p1528
F78.5
sS'$timestamp'
p1529
S'2015-05-06T20:38:51.614546'
p1530
sa(dp1531
S'trans_time'
p1532
I00
sS'ac_state'
p1533
I01
sS'total_run_time_home'
p1534
F52.83020528333333
sS'total_run_time_away'
p1535
I0
sS'total_trans_time'
p1536
I0
sS'away'
p1537
I00
sS'target_type'
p1538
Vcool
p1539
sS'current_temperature'
p1540
F78.278
sS'total_run_time'
p1541
F52.83020528333333
sS'target_temperature'
p1542
F78.20060000000001
sS'outside_temperature'
p1543
F78.5
sS'$timestamp'
p1544
S'2015-05-06T20:40:51.878884'
p1545
sa(dp1546
S'trans_time'
p1547
I00
sS'ac_state'
p1548
I00
sS'total_run_time_home'
p1549
F54.82568538333333
sS'total_run_time_away'
p1550
I0
sS'total_trans_time'
p1551
I0
sS'away'
p1552
I00
sS'target_type'
p1553
Vcool
p1554
sS'current_temperature'
p1555
F77.234
sS'total_run_time'
p1556
F54.82568538333333
sS'target_temperature'
p1557
F78.20060000000001
sS'outside_temperature'
p1558
F78.5
sS'$timestamp'
p1559
S'2015-05-06T20:42:51.607690'
p1560
sa(dp1561
S'trans_time'
p1562
I00
sS'ac_state'
p1563
I00
sS'total_run_time_home'
p1564
F54.82568538333333
sS'total_run_time_away'
p1565
I0
sS'total_trans_time'
p1566
I0
sS'away'
p1567
I00
sS'target_type'
p1568
Vcool
p1569
sS'current_temperature'
p1570
F77.234
sS'total_run_time'
p1571
F54.82568538333333
sS'target_temperature'
p1572
F78.20060000000001
sS'outside_temperature'
p1573
F78.5
sS'$timestamp'
p1574
S'2015-05-06T20:44:51.592001'
p1575
sa(dp1576
S'trans_time'
p1577
I00
sS'ac_state'
p1578
I00
sS'total_run_time_home'
p1579
F54.82568538333333
sS'total_run_time_away'
p1580
I0
sS'total_trans_time'
p1581
I0
sS'away'
p1582
I00
sS'target_type'
p1583
Vcool
p1584
sS'current_temperature'
p1585
F77.234
sS'total_run_time'
p1586
F54.82568538333333
sS'target_temperature'
p1587
F78.20060000000001
sS'outside_temperature'
p1588
F78.5
sS'$timestamp'
p1589
S'2015-05-06T20:46:52.325695'
p1590
sa(dp1591
S'trans_time'
p1592
I00
sS'ac_state'
p1593
I00
sS'total_run_time_home'
p1594
F54.82568538333333
sS'total_run_time_away'
p1595
I0
sS'total_trans_time'
p1596
I0
sS'away'
p1597
I00
sS'target_type'
p1598
Vcool
p1599
sS'current_temperature'
p1600
F77.234
sS'total_run_time'
p1601
F54.82568538333333
sS'target_temperature'
p1602
F78.20060000000001
sS'outside_temperature'
p1603
F78.5
sS'$timestamp'
p1604
S'2015-05-06T20:48:51.618902'
p1605
sa(dp1606
S'trans_time'
p1607
I00
sS'ac_state'
p1608
I00
sS'total_run_time_home'
p1609
F54.82568538333333
sS'total_run_time_away'
p1610
I0
sS'total_trans_time'
p1611
I0
sS'away'
p1612
I00
sS'target_type'
p1613
Vcool
p1614
sS'current_temperature'
p1615
F77.234
sS'total_run_time'
p1616
F54.82568538333333
sS'target_temperature'
p1617
F78.20060000000001
sS'outside_temperature'
p1618
F78.5
sS'$timestamp'
p1619
S'2015-05-06T20:50:51.584908'
p1620
sa(dp1621
S'trans_time'
p1622
I00
sS'ac_state'
p1623
I00
sS'total_run_time_home'
p1624
F54.82568538333333
sS'total_run_time_away'
p1625
I0
sS'total_trans_time'
p1626
I0
sS'away'
p1627
I00
sS'target_type'
p1628
Vcool
p1629
sS'current_temperature'
p1630
F77.234
sS'total_run_time'
p1631
F54.82568538333333
sS'target_temperature'
p1632
F78.20060000000001
sS'outside_temperature'
p1633
F78.5
sS'$timestamp'
p1634
S'2015-05-06T20:52:51.803580'
p1635
sa(dp1636
S'trans_time'
p1637
I00
sS'ac_state'
p1638
I00
sS'total_run_time_home'
p1639
F54.82568538333333
sS'total_run_time_away'
p1640
I0
sS'total_trans_time'
p1641
I0
sS'away'
p1642
I00
sS'target_type'
p1643
Vcool
p1644
sS'current_temperature'
p1645
F77.234
sS'total_run_time'
p1646
F54.82568538333333
sS'target_temperature'
p1647
F78.20060000000001
sS'outside_temperature'
p1648
F78.5
sS'$timestamp'
p1649
S'2015-05-06T20:54:51.547749'
p1650
sa(dp1651
S'trans_time'
p1652
I00
sS'ac_state'
p1653
I00
sS'total_run_time_home'
p1654
F54.82568538333333
sS'total_run_time_away'
p1655
I0
sS'total_trans_time'
p1656
I0
sS'away'
p1657
I00
sS'target_type'
p1658
Vcool
p1659
sS'current_temperature'
p1660
F77.234
sS'total_run_time'
p1661
F54.82568538333333
sS'target_temperature'
p1662
F78.20060000000001
sS'outside_temperature'
p1663
F78.5
sS'$timestamp'
p1664
S'2015-05-06T20:56:51.608298'
p1665
sa(dp1666
S'trans_time'
p1667
I00
sS'ac_state'
p1668
I00
sS'total_run_time_home'
p1669
F54.82568538333333
sS'total_run_time_away'
p1670
I0
sS'total_trans_time'
p1671
I0
sS'away'
p1672
I00
sS'target_type'
p1673
Vcool
p1674
sS'current_temperature'
p1675
F77.234
sS'total_run_time'
p1676
F54.82568538333333
sS'target_temperature'
p1677
F78.20060000000001
sS'outside_temperature'
p1678
F76.6
sS'$timestamp'
p1679
S'2015-05-06T20:58:52.184256'
p1680
sa(dp1681
S'trans_time'
p1682
I00
sS'ac_state'
p1683
I00
sS'total_run_time_home'
p1684
F54.82568538333333
sS'total_run_time_away'
p1685
I0
sS'total_trans_time'
p1686
I0
sS'away'
p1687
I00
sS'target_type'
p1688
Vcool
p1689
sS'current_temperature'
p1690
F77.234
sS'total_run_time'
p1691
F54.82568538333333
sS'target_temperature'
p1692
F78.20060000000001
sS'outside_temperature'
p1693
F76.6
sS'$timestamp'
p1694
S'2015-05-06T21:00:51.600374'
p1695
sa(dp1696
S'trans_time'
p1697
I00
sS'ac_state'
p1698
I00
sS'total_run_time_home'
p1699
F54.82568538333333
sS'total_run_time_away'
p1700
I0
sS'total_trans_time'
p1701
I0
sS'away'
p1702
I00
sS'target_type'
p1703
Vcool
p1704
sS'current_temperature'
p1705
F77.234
sS'total_run_time'
p1706
F54.82568538333333
sS'target_temperature'
p1707
F78.20060000000001
sS'outside_temperature'
p1708
F76.6
sS'$timestamp'
p1709
S'2015-05-06T21:02:51.623560'
p1710
sa(dp1711
S'trans_time'
p1712
I00
sS'ac_state'
p1713
I00
sS'total_run_time_home'
p1714
F54.82568538333333
sS'total_run_time_away'
p1715
I0
sS'total_trans_time'
p1716
I0
sS'away'
p1717
I00
sS'target_type'
p1718
Vcool
p1719
sS'current_temperature'
p1720
F77.234
sS'total_run_time'
p1721
F54.82568538333333
sS'target_temperature'
p1722
F78.20060000000001
sS'outside_temperature'
p1723
F76.6
sS'$timestamp'
p1724
S'2015-05-06T21:04:51.804770'
p1725
sa(dp1726
S'trans_time'
p1727
I00
sS'ac_state'
p1728
I01
sS'total_run_time_home'
p1729
F54.82568538333333
sS'total_run_time_away'
p1730
I0
sS'total_trans_time'
p1731
I0
sS'away'
p1732
I00
sS'target_type'
p1733
Vcool
p1734
sS'current_temperature'
p1735
F79.214
sS'total_run_time'
p1736
F54.82568538333333
sS'target_temperature'
p1737
F78.20060000000001
sS'outside_temperature'
p1738
F76.6
sS'$timestamp'
p1739
S'2015-05-06T21:06:51.587612'
p1740
sa(dp1741
S'trans_time'
p1742
I00
sS'ac_state'
p1743
I01
sS'total_run_time_home'
p1744
F56.82589183333333
sS'total_run_time_away'
p1745
I0
sS'total_trans_time'
p1746
I0
sS'away'
p1747
I00
sS'target_type'
p1748
Vcool
p1749
sS'current_temperature'
p1750
F79.214
sS'total_run_time'
p1751
F56.82589183333333
sS'target_temperature'
p1752
F78.20060000000001
sS'outside_temperature'
p1753
F76.6
sS'$timestamp'
p1754
S'2015-05-06T21:08:51.599999'
p1755
sa(dp1756
S'trans_time'
p1757
I00
sS'ac_state'
p1758
I00
sS'total_run_time_home'
p1759
F58.82938274999999
sS'total_run_time_away'
p1760
I0
sS'total_trans_time'
p1761
I0
sS'away'
p1762
I00
sS'target_type'
p1763
Vcool
p1764
sS'current_temperature'
p1765
F78.494
sS'total_run_time'
p1766
F58.82938274999999
sS'target_temperature'
p1767
F78.20060000000001
sS'outside_temperature'
p1768
F76.3
sS'$timestamp'
p1769
S'2015-05-06T21:10:51.809454'
p1770
sa(dp1771
S'trans_time'
p1772
I00
sS'ac_state'
p1773
I00
sS'total_run_time_home'
p1774
F58.82938274999999
sS'total_run_time_away'
p1775
I0
sS'total_trans_time'
p1776
I0
sS'away'
p1777
I00
sS'target_type'
p1778
Vcool
p1779
sS'current_temperature'
p1780
F77.162
sS'total_run_time'
p1781
F58.82938274999999
sS'target_temperature'
p1782
F78.20060000000001
sS'outside_temperature'
p1783
F76.3
sS'$timestamp'
p1784
S'2015-05-06T21:12:51.595188'
p1785
sa(dp1786
S'trans_time'
p1787
I00
sS'ac_state'
p1788
I00
sS'total_run_time_home'
p1789
F58.82938274999999
sS'total_run_time_away'
p1790
I0
sS'total_trans_time'
p1791
I0
sS'away'
p1792
I00
sS'target_type'
p1793
Vcool
p1794
sS'current_temperature'
p1795
F77.162
sS'total_run_time'
p1796
F58.82938274999999
sS'target_temperature'
p1797
F78.20060000000001
sS'outside_temperature'
p1798
F76.3
sS'$timestamp'
p1799
S'2015-05-06T21:14:51.586510'
p1800
sa(dp1801
S'trans_time'
p1802
I00
sS'ac_state'
p1803
I00
sS'total_run_time_home'
p1804
F58.82938274999999
sS'total_run_time_away'
p1805
I0
sS'total_trans_time'
p1806
I0
sS'away'
p1807
I00
sS'target_type'
p1808
Vcool
p1809
sS'current_temperature'
p1810
F77.162
sS'total_run_time'
p1811
F58.82938274999999
sS'target_temperature'
p1812
F78.20060000000001
sS'outside_temperature'
p1813
F76.3
sS'$timestamp'
p1814
S'2015-05-06T21:16:51.819426'
p1815
sa(dp1816
S'trans_time'
p1817
I00
sS'ac_state'
p1818
I00
sS'total_run_time_home'
p1819
F58.82938274999999
sS'total_run_time_away'
p1820
I0
sS'total_trans_time'
p1821
I0
sS'away'
p1822
I00
sS'target_type'
p1823
Vcool
p1824
sS'current_temperature'
p1825
F77.162
sS'total_run_time'
p1826
F58.82938274999999
sS'target_temperature'
p1827
F78.20060000000001
sS'outside_temperature'
p1828
F76.3
sS'$timestamp'
p1829
S'2015-05-06T21:18:51.604220'
p1830
sa(dp1831
S'trans_time'
p1832
I00
sS'ac_state'
p1833
I00
sS'total_run_time_home'
p1834
F58.82938274999999
sS'total_run_time_away'
p1835
I0
sS'total_trans_time'
p1836
I0
sS'away'
p1837
I00
sS'target_type'
p1838
Vcool
p1839
sS'current_temperature'
p1840
F77.162
sS'total_run_time'
p1841
F58.82938274999999
sS'target_temperature'
p1842
F78.20060000000001
sS'outside_temperature'
p1843
F76.3
sS'$timestamp'
p1844
S'2015-05-06T21:20:51.593063'
p1845
sa(dp1846
S'trans_time'
p1847
I00
sS'ac_state'
p1848
I00
sS'total_run_time_home'
p1849
F58.82938274999999
sS'total_run_time_away'
p1850
I0
sS'total_trans_time'
p1851
I0
sS'away'
p1852
I00
sS'target_type'
p1853
Vcool
p1854
sS'current_temperature'
p1855
F77.162
sS'total_run_time'
p1856
F58.82938274999999
sS'target_temperature'
p1857
F78.20060000000001
sS'outside_temperature'
p1858
F76.3
sS'$timestamp'
p1859
S'2015-05-06T21:22:51.835302'
p1860
sa(dp1861
S'trans_time'
p1862
I00
sS'ac_state'
p1863
I00
sS'total_run_time_home'
p1864
F58.82938274999999
sS'total_run_time_away'
p1865
I0
sS'total_trans_time'
p1866
I0
sS'away'
p1867
I00
sS'target_type'
p1868
Vcool
p1869
sS'current_temperature'
p1870
F77.162
sS'total_run_time'
p1871
F58.82938274999999
sS'target_temperature'
p1872
F78.20060000000001
sS'outside_temperature'
p1873
F76.3
sS'$timestamp'
p1874
S'2015-05-06T21:24:51.613962'
p1875
sa(dp1876
S'trans_time'
p1877
I00
sS'ac_state'
p1878
I00
sS'total_run_time_home'
p1879
F58.82938274999999
sS'total_run_time_away'
p1880
I0
sS'total_trans_time'
p1881
I0
sS'away'
p1882
I00
sS'target_type'
p1883
Vcool
p1884
sS'current_temperature'
p1885
F77.162
sS'total_run_time'
p1886
F58.82938274999999
sS'target_temperature'
p1887
F78.20060000000001
sS'outside_temperature'
p1888
F76.3
sS'$timestamp'
p1889
S'2015-05-06T21:26:51.619766'
p1890
sa(dp1891
S'trans_time'
p1892
I00
sS'ac_state'
p1893
I00
sS'total_run_time_home'
p1894
F58.82938274999999
sS'total_run_time_away'
p1895
I0
sS'total_trans_time'
p1896
I0
sS'away'
p1897
I00
sS'target_type'
p1898
Vcool
p1899
sS'current_temperature'
p1900
F77.162
sS'total_run_time'
p1901
F58.82938274999999
sS'target_temperature'
p1902
F78.20060000000001
sS'outside_temperature'
p1903
F75.2
sS'$timestamp'
p1904
S'2015-05-06T21:28:52.364789'
p1905
sa(dp1906
S'trans_time'
p1907
I00
sS'ac_state'
p1908
I00
sS'total_run_time_home'
p1909
F58.82938274999999
sS'total_run_time_away'
p1910
I0
sS'total_trans_time'
p1911
I0
sS'away'
p1912
I00
sS'target_type'
p1913
Vcool
p1914
sS'current_temperature'
p1915
F77.162
sS'total_run_time'
p1916
F58.82938274999999
sS'target_temperature'
p1917
F78.20060000000001
sS'outside_temperature'
p1918
F75.2
sS'$timestamp'
p1919
S'2015-05-06T21:30:51.600825'
p1920
sa(dp1921
S'trans_time'
p1922
I00
sS'ac_state'
p1923
I00
sS'total_run_time_home'
p1924
F58.82938274999999
sS'total_run_time_away'
p1925
I0
sS'total_trans_time'
p1926
I0
sS'away'
p1927
I00
sS'target_type'
p1928
Vcool
p1929
sS'current_temperature'
p1930
F77.162
sS'total_run_time'
p1931
F58.82938274999999
sS'target_temperature'
p1932
F78.20060000000001
sS'outside_temperature'
p1933
F75.2
sS'$timestamp'
p1934
S'2015-05-06T21:32:51.607005'
p1935
sa(dp1936
S'trans_time'
p1937
I00
sS'ac_state'
p1938
I01
sS'total_run_time_home'
p1939
F58.82938274999999
sS'total_run_time_away'
p1940
I0
sS'total_trans_time'
p1941
I0
sS'away'
p1942
I00
sS'target_type'
p1943
Vcool
p1944
sS'current_temperature'
p1945
F79.232
sS'total_run_time'
p1946
F58.82938274999999
sS'target_temperature'
p1947
F78.20060000000001
sS'outside_temperature'
p1948
F75.2
sS'$timestamp'
p1949
S'2015-05-06T21:34:51.776524'
p1950
sa(dp1951
S'trans_time'
p1952
I00
sS'ac_state'
p1953
I01
sS'total_run_time_home'
p1954
F60.826181083333324
sS'total_run_time_away'
p1955
I0
sS'total_trans_time'
p1956
I0
sS'away'
p1957
I00
sS'target_type'
p1958
Vcool
p1959
sS'current_temperature'
p1960
F79.232
sS'total_run_time'
p1961
F60.826181083333324
sS'target_temperature'
p1962
F78.20060000000001
sS'outside_temperature'
p1963
F75.2
sS'$timestamp'
p1964
S'2015-05-06T21:36:51.584424'
p1965
sa(dp1966
S'trans_time'
p1967
I00
sS'ac_state'
p1968
I01
sS'total_run_time_home'
p1969
F62.82676264999999
sS'total_run_time_away'
p1970
I0
sS'total_trans_time'
p1971
I0
sS'away'
p1972
I00
sS'target_type'
p1973
Vcool
p1974
sS'current_temperature'
p1975
F79.232
sS'total_run_time'
p1976
F62.82676264999999
sS'target_temperature'
p1977
F78.20060000000001
sS'outside_temperature'
p1978
F75.2
sS'$timestamp'
p1979
S'2015-05-06T21:38:51.619318'
p1980
sa(dp1981
S'trans_time'
p1982
I00
sS'ac_state'
p1983
I00
sS'total_run_time_home'
p1984
F64.82966393333332
sS'total_run_time_away'
p1985
I0
sS'total_trans_time'
p1986
I0
sS'away'
p1987
I00
sS'target_type'
p1988
Vcool
p1989
sS'current_temperature'
p1990
F78.08
sS'total_run_time'
p1991
F64.82966393333332
sS'target_temperature'
p1992
F78.20060000000001
sS'outside_temperature'
p1993
F74.5
sS'$timestamp'
p1994
S'2015-05-06T21:40:51.793395'
p1995
sa(dp1996
S'trans_time'
p1997
I00
sS'ac_state'
p1998
I00
sS'total_run_time_home'
p1999
F64.82966393333332
sS'total_run_time_away'
p2000
I0
sS'total_trans_time'
p2001
I0
sS'away'
p2002
I00
sS'target_type'
p2003
Vcool
p2004
sS'current_temperature'
p2005
F77.18
sS'total_run_time'
p2006
F64.82966393333332
sS'target_temperature'
p2007
F78.20060000000001
sS'outside_temperature'
p2008
F74.5
sS'$timestamp'
p2009
S'2015-05-06T21:42:51.600957'
p2010
sa(dp2011
S'trans_time'
p2012
I00
sS'ac_state'
p2013
I00
sS'total_run_time_home'
p2014
F64.82966393333332
sS'total_run_time_away'
p2015
I0
sS'total_trans_time'
p2016
I0
sS'away'
p2017
I00
sS'target_type'
p2018
Vcool
p2019
sS'current_temperature'
p2020
F77.18
sS'total_run_time'
p2021
F64.82966393333332
sS'target_temperature'
p2022
F78.20060000000001
sS'outside_temperature'
p2023
F74.5
sS'$timestamp'
p2024
S'2015-05-06T21:44:51.636586'
p2025
sa(dp2026
S'trans_time'
p2027
I00
sS'ac_state'
p2028
I00
sS'total_run_time_home'
p2029
F64.82966393333332
sS'total_run_time_away'
p2030
I0
sS'total_trans_time'
p2031
I0
sS'away'
p2032
I00
sS'target_type'
p2033
Vcool
p2034
sS'current_temperature'
p2035
F77.18
sS'total_run_time'
p2036
F64.82966393333332
sS'target_temperature'
p2037
F78.20060000000001
sS'outside_temperature'
p2038
F74.5
sS'$timestamp'
p2039
S'2015-05-06T21:46:51.828380'
p2040
sa(dp2041
S'trans_time'
p2042
I00
sS'ac_state'
p2043
I00
sS'total_run_time_home'
p2044
F64.82966393333332
sS'total_run_time_away'
p2045
I0
sS'total_trans_time'
p2046
I0
sS'away'
p2047
I00
sS'target_type'
p2048
Vcool
p2049
sS'current_temperature'
p2050
F77.18
sS'total_run_time'
p2051
F64.82966393333332
sS'target_temperature'
p2052
F78.20060000000001
sS'outside_temperature'
p2053
F74.5
sS'$timestamp'
p2054
S'2015-05-06T21:48:51.598647'
p2055
sa(dp2056
S'trans_time'
p2057
I00
sS'ac_state'
p2058
I00
sS'total_run_time_home'
p2059
F64.82966393333332
sS'total_run_time_away'
p2060
I0
sS'total_trans_time'
p2061
I0
sS'away'
p2062
I00
sS'target_type'
p2063
Vcool
p2064
sS'current_temperature'
p2065
F77.18
sS'total_run_time'
p2066
F64.82966393333332
sS'target_temperature'
p2067
F78.20060000000001
sS'outside_temperature'
p2068
F74.5
sS'$timestamp'
p2069
S'2015-05-06T21:50:51.568057'
p2070
sa(dp2071
S'trans_time'
p2072
I00
sS'ac_state'
p2073
I00
sS'total_run_time_home'
p2074
F64.82966393333332
sS'total_run_time_away'
p2075
I0
sS'total_trans_time'
p2076
I0
sS'away'
p2077
I00
sS'target_type'
p2078
Vcool
p2079
sS'current_temperature'
p2080
F77.18
sS'total_run_time'
p2081
F64.82966393333332
sS'target_temperature'
p2082
F78.20060000000001
sS'outside_temperature'
p2083
F74.5
sS'$timestamp'
p2084
S'2015-05-06T21:52:51.936641'
p2085
sa(dp2086
S'trans_time'
p2087
I00
sS'ac_state'
p2088
I00
sS'total_run_time_home'
p2089
F64.82966393333332
sS'total_run_time_away'
p2090
I0
sS'total_trans_time'
p2091
I0
sS'away'
p2092
I00
sS'target_type'
p2093
Vcool
p2094
sS'current_temperature'
p2095
F78.67399999999999
sS'total_run_time'
p2096
F64.82966393333332
sS'target_temperature'
p2097
F78.20060000000001
sS'outside_temperature'
p2098
F74.5
sS'$timestamp'
p2099
S'2015-05-06T21:54:51.636420'
p2100
sa(dp2101
S'trans_time'
p2102
I00
sS'ac_state'
p2103
I00
sS'total_run_time_home'
p2104
F64.82966393333332
sS'total_run_time_away'
p2105
I0
sS'total_trans_time'
p2106
I0
sS'away'
p2107
I00
sS'target_type'
p2108
Vcool
p2109
sS'current_temperature'
p2110
F78.67399999999999
sS'total_run_time'
p2111
F64.82966393333332
sS'target_temperature'
p2112
F78.20060000000001
sS'outside_temperature'
p2113
F74.5
sS'$timestamp'
p2114
S'2015-05-06T21:56:51.561916'
p2115
sa(dp2116
S'trans_time'
p2117
I00
sS'ac_state'
p2118
I00
sS'total_run_time_home'
p2119
F64.82966393333332
sS'total_run_time_away'
p2120
I0
sS'total_trans_time'
p2121
I0
sS'away'
p2122
I00
sS'target_type'
p2123
Vcool
p2124
sS'current_temperature'
p2125
F78.67399999999999
sS'total_run_time'
p2126
F64.82966393333332
sS'target_temperature'
p2127
F78.20060000000001
sS'outside_temperature'
p2128
F74.1
sS'$timestamp'
p2129
S'2015-05-06T21:58:51.898566'
p2130
sa(dp2131
S'trans_time'
p2132
I00
sS'ac_state'
p2133
I00
sS'total_run_time_home'
p2134
F64.82966393333332
sS'total_run_time_away'
p2135
I0
sS'total_trans_time'
p2136
I0
sS'away'
p2137
I00
sS'target_type'
p2138
Vcool
p2139
sS'current_temperature'
p2140
F78.67399999999999
sS'total_run_time'
p2141
F64.82966393333332
sS'target_temperature'
p2142
F78.20060000000001
sS'outside_temperature'
p2143
F74.1
sS'$timestamp'
p2144
S'2015-05-06T22:00:51.629466'
p2145
sa(dp2146
S'trans_time'
p2147
I00
sS'ac_state'
p2148
I00
sS'total_run_time_home'
p2149
F64.82966393333332
sS'total_run_time_away'
p2150
I0
sS'total_trans_time'
p2151
I0
sS'away'
p2152
I00
sS'target_type'
p2153
Vcool
p2154
sS'current_temperature'
p2155
F78.67399999999999
sS'total_run_time'
p2156
F64.82966393333332
sS'target_temperature'
p2157
F78.20060000000001
sS'outside_temperature'
p2158
F74.1
sS'$timestamp'
p2159
S'2015-05-06T22:02:51.631443'
p2160
sa(dp2161
S'trans_time'
p2162
I00
sS'ac_state'
p2163
I00
sS'total_run_time_home'
p2164
F64.82966393333332
sS'total_run_time_away'
p2165
I0
sS'total_trans_time'
p2166
I0
sS'away'
p2167
I00
sS'target_type'
p2168
Vcool
p2169
sS'current_temperature'
p2170
F78.67399999999999
sS'total_run_time'
p2171
F64.82966393333332
sS'target_temperature'
p2172
F78.20060000000001
sS'outside_temperature'
p2173
F74.1
sS'$timestamp'
p2174
S'2015-05-06T22:04:51.839917'
p2175
sa(dp2176
S'trans_time'
p2177
I00
sS'ac_state'
p2178
I00
sS'total_run_time_home'
p2179
F64.82966393333332
sS'total_run_time_away'
p2180
I0
sS'total_trans_time'
p2181
I0
sS'away'
p2182
I00
sS'target_type'
p2183
Vcool
p2184
sS'current_temperature'
p2185
F78.67399999999999
sS'total_run_time'
p2186
F64.82966393333332
sS'target_temperature'
p2187
F78.20060000000001
sS'outside_temperature'
p2188
F74.1
sS'$timestamp'
p2189
S'2015-05-06T22:06:51.734799'
p2190
sa(dp2191
S'trans_time'
p2192
I00
sS'ac_state'
p2193
I00
sS'total_run_time_home'
p2194
F64.82966393333332
sS'total_run_time_away'
p2195
I0
sS'total_trans_time'
p2196
I0
sS'away'
p2197
I00
sS'target_type'
p2198
Vcool
p2199
sS'current_temperature'
p2200
F78.67399999999999
sS'total_run_time'
p2201
F64.82966393333332
sS'target_temperature'
p2202
F78.20060000000001
sS'outside_temperature'
p2203
F74.1
sS'$timestamp'
p2204
S'2015-05-06T22:08:52.370087'
p2205
sa(dp2206
S'trans_time'
p2207
I00
sS'ac_state'
p2208
I00
sS'total_run_time_home'
p2209
F64.82966393333332
sS'total_run_time_away'
p2210
I0
sS'total_trans_time'
p2211
I0
sS'away'
p2212
I00
sS'target_type'
p2213
Vcool
p2214
sS'current_temperature'
p2215
F78.67399999999999
sS'total_run_time'
p2216
F64.82966393333332
sS'target_temperature'
p2217
F78.20060000000001
sS'outside_temperature'
p2218
F72.1
sS'$timestamp'
p2219
S'2015-05-06T22:10:51.942821'
p2220
sa(dp2221
S'trans_time'
p2222
I00
sS'ac_state'
p2223
I00
sS'total_run_time_home'
p2224
F64.82966393333332
sS'total_run_time_away'
p2225
I0
sS'total_trans_time'
p2226
I0
sS'away'
p2227
I00
sS'target_type'
p2228
Vcool
p2229
sS'current_temperature'
p2230
F78.67399999999999
sS'total_run_time'
p2231
F64.82966393333332
sS'target_temperature'
p2232
F78.20060000000001
sS'outside_temperature'
p2233
F72.1
sS'$timestamp'
p2234
S'2015-05-06T22:12:52.050687'
p2235
sa(dp2236
S'trans_time'
p2237
I00
sS'ac_state'
p2238
I00
sS'total_run_time_home'
p2239
F64.82966393333332
sS'total_run_time_away'
p2240
I0
sS'total_trans_time'
p2241
I0
sS'away'
p2242
I00
sS'target_type'
p2243
Vcool
p2244
sS'current_temperature'
p2245
F78.67399999999999
sS'total_run_time'
p2246
F64.82966393333332
sS'target_temperature'
p2247
F78.20060000000001
sS'outside_temperature'
p2248
F72.1
sS'$timestamp'
p2249
S'2015-05-06T22:14:51.742038'
p2250
sa(dp2251
S'trans_time'
p2252
I00
sS'ac_state'
p2253
I00
sS'total_run_time_home'
p2254
F64.82966393333332
sS'total_run_time_away'
p2255
I0
sS'total_trans_time'
p2256
I0
sS'away'
p2257
I00
sS'target_type'
p2258
Vcool
p2259
sS'current_temperature'
p2260
F78.67399999999999
sS'total_run_time'
p2261
F64.82966393333332
sS'target_temperature'
p2262
F78.20060000000001
sS'outside_temperature'
p2263
F72.1
sS'$timestamp'
p2264
S'2015-05-06T22:16:51.910054'
p2265
sa(dp2266
S'trans_time'
p2267
I00
sS'ac_state'
p2268
I00
sS'total_run_time_home'
p2269
F64.82966393333332
sS'total_run_time_away'
p2270
I0
sS'total_trans_time'
p2271
I0
sS'away'
p2272
I00
sS'target_type'
p2273
Vcool
p2274
sS'current_temperature'
p2275
F78.67399999999999
sS'total_run_time'
p2276
F64.82966393333332
sS'target_temperature'
p2277
F78.20060000000001
sS'outside_temperature'
p2278
F72.1
sS'$timestamp'
p2279
S'2015-05-06T22:18:51.737563'
p2280
sa(dp2281
S'trans_time'
p2282
I00
sS'ac_state'
p2283
I01
sS'total_run_time_home'
p2284
F64.82966393333332
sS'total_run_time_away'
p2285
I0
sS'total_trans_time'
p2286
I0
sS'away'
p2287
I00
sS'target_type'
p2288
Vcool
p2289
sS'current_temperature'
p2290
F78.67399999999999
sS'total_run_time'
p2291
F64.82966393333332
sS'target_temperature'
p2292
F78.20060000000001
sS'outside_temperature'
p2293
F72.1
sS'$timestamp'
p2294
S'2015-05-06T22:20:51.611067'
p2295
sa(dp2296
S'trans_time'
p2297
I00
sS'ac_state'
p2298
I01
sS'total_run_time_home'
p2299
F66.84247384999999
sS'total_run_time_away'
p2300
I0
sS'total_trans_time'
p2301
I0
sS'away'
p2302
I00
sS'target_type'
p2303
Vcool
p2304
sS'current_temperature'
p2305
F78.67399999999999
sS'total_run_time'
p2306
F66.84247384999999
sS'target_temperature'
p2307
F78.20060000000001
sS'outside_temperature'
p2308
F72.1
sS'$timestamp'
p2309
S'2015-05-06T22:22:52.379662'
p2310
sa(dp2311
S'trans_time'
p2312
I00
sS'ac_state'
p2313
I01
sS'total_run_time_home'
p2314
F68.83185426666665
sS'total_run_time_away'
p2315
I0
sS'total_trans_time'
p2316
I0
sS'away'
p2317
I00
sS'target_type'
p2318
Vcool
p2319
sS'current_temperature'
p2320
F78.67399999999999
sS'total_run_time'
p2321
F68.83185426666665
sS'target_temperature'
p2322
F78.20060000000001
sS'outside_temperature'
p2323
F72.1
sS'$timestamp'
p2324
S'2015-05-06T22:24:51.742487'
p2325
sa(dp2326
S'trans_time'
p2327
I00
sS'ac_state'
p2328
I00
sS'total_run_time_home'
p2329
F68.83185426666665
sS'total_run_time_away'
p2330
F2.0004379833333332
sS'total_trans_time'
p2331
I0
sS'away'
p2332
I01
sS'target_type'
p2333
Vcool
p2334
sS'current_temperature'
p2335
F78.494
sS'total_run_time'
p2336
F70.83229224999998
sS'target_temperature'
p2337
F84.391628
sS'outside_temperature'
p2338
F72.1
sS'$timestamp'
p2339
S'2015-05-06T22:26:51.768766'
p2340
sa(dp2341
S'trans_time'
p2342
I00
sS'ac_state'
p2343
I00
sS'total_run_time_home'
p2344
F68.83185426666665
sS'total_run_time_away'
p2345
F2.0004379833333332
sS'total_trans_time'
p2346
I0
sS'away'
p2347
I01
sS'target_type'
p2348
Vcool
p2349
sS'current_temperature'
p2350
F76.964
sS'total_run_time'
p2351
F70.83229224999998
sS'target_temperature'
p2352
F84.391628
sS'outside_temperature'
p2353
F70.5
sS'$timestamp'
p2354
S'2015-05-06T22:28:51.841611'
p2355
sa(dp2356
S'trans_time'
p2357
I00
sS'ac_state'
p2358
I00
sS'total_run_time_home'
p2359
F68.83185426666665
sS'total_run_time_away'
p2360
F2.0004379833333332
sS'total_trans_time'
p2361
I0
sS'away'
p2362
I01
sS'target_type'
p2363
Vcool
p2364
sS'current_temperature'
p2365
F76.964
sS'total_run_time'
p2366
F70.83229224999998
sS'target_temperature'
p2367
F84.391628
sS'outside_temperature'
p2368
F70.5
sS'$timestamp'
p2369
S'2015-05-06T22:30:51.621284'
p2370
sa(dp2371
S'trans_time'
p2372
I00
sS'ac_state'
p2373
I00
sS'total_run_time_home'
p2374
F68.83185426666665
sS'total_run_time_away'
p2375
F2.0004379833333332
sS'total_trans_time'
p2376
I0
sS'away'
p2377
I01
sS'target_type'
p2378
Vcool
p2379
sS'current_temperature'
p2380
F76.964
sS'total_run_time'
p2381
F70.83229224999998
sS'target_temperature'
p2382
F84.391628
sS'outside_temperature'
p2383
F70.5
sS'$timestamp'
p2384
S'2015-05-06T22:32:51.666330'
p2385
sa(dp2386
S'trans_time'
p2387
I00
sS'ac_state'
p2388
I00
sS'total_run_time_home'
p2389
F68.83185426666665
sS'total_run_time_away'
p2390
F2.0004379833333332
sS'total_trans_time'
p2391
I0
sS'away'
p2392
I01
sS'target_type'
p2393
Vcool
p2394
sS'current_temperature'
p2395
F76.964
sS'total_run_time'
p2396
F70.83229224999998
sS'target_temperature'
p2397
F84.391628
sS'outside_temperature'
p2398
F71.4
sS'$timestamp'
p2399
S'2015-05-06T22:34:51.801140'
p2400
sa(dp2401
S'trans_time'
p2402
I00
sS'ac_state'
p2403
I00
sS'total_run_time_home'
p2404
F68.83185426666665
sS'total_run_time_away'
p2405
F2.0004379833333332
sS'total_trans_time'
p2406
I0
sS'away'
p2407
I01
sS'target_type'
p2408
Vcool
p2409
sS'current_temperature'
p2410
F76.964
sS'total_run_time'
p2411
F70.83229224999998
sS'target_temperature'
p2412
F84.391628
sS'outside_temperature'
p2413
F71.4
sS'$timestamp'
p2414
S'2015-05-06T22:36:51.660407'
p2415
sa(dp2416
S'trans_time'
p2417
I00
sS'ac_state'
p2418
I00
sS'total_run_time_home'
p2419
F68.83185426666665
sS'total_run_time_away'
p2420
F2.0004379833333332
sS'total_trans_time'
p2421
I0
sS'away'
p2422
I00
sS'target_type'
p2423
Vcool
p2424
sS'current_temperature'
p2425
F78.67399999999999
sS'total_run_time'
p2426
F70.83229224999998
sS'target_temperature'
p2427
F78.20060000000001
sS'outside_temperature'
p2428
F71.4
sS'$timestamp'
p2429
S'2015-05-06T22:38:51.615364'
p2430
sa(dp2431
S'trans_time'
p2432
I00
sS'ac_state'
p2433
I00
sS'total_run_time_home'
p2434
F68.83185426666665
sS'total_run_time_away'
p2435
F2.0004379833333332
sS'total_trans_time'
p2436
I0
sS'away'
p2437
I00
sS'target_type'
p2438
Vcool
p2439
sS'current_temperature'
p2440
F78.67399999999999
sS'total_run_time'
p2441
F70.83229224999998
sS'target_temperature'
p2442
F78.20060000000001
sS'outside_temperature'
p2443
F71.0
sS'$timestamp'
p2444
S'2015-05-06T22:40:52.245069'
p2445
sa(dp2446
S'trans_time'
p2447
I00
sS'ac_state'
p2448
I00
sS'total_run_time_home'
p2449
F68.83185426666665
sS'total_run_time_away'
p2450
F2.0004379833333332
sS'total_trans_time'
p2451
I0
sS'away'
p2452
I00
sS'target_type'
p2453
Vcool
p2454
sS'current_temperature'
p2455
F78.67399999999999
sS'total_run_time'
p2456
F70.83229224999998
sS'target_temperature'
p2457
F78.20060000000001
sS'outside_temperature'
p2458
F71.0
sS'$timestamp'
p2459
S'2015-05-06T22:42:51.729674'
p2460
sa(dp2461
S'trans_time'
p2462
I00
sS'ac_state'
p2463
I00
sS'total_run_time_home'
p2464
F68.83185426666665
sS'total_run_time_away'
p2465
F2.0004379833333332
sS'total_trans_time'
p2466
I0
sS'away'
p2467
I00
sS'target_type'
p2468
Vcool
p2469
sS'current_temperature'
p2470
F78.67399999999999
sS'total_run_time'
p2471
F70.83229224999998
sS'target_temperature'
p2472
F78.20060000000001
sS'outside_temperature'
p2473
F71.0
sS'$timestamp'
p2474
S'2015-05-06T22:44:51.594148'
p2475
sa(dp2476
S'trans_time'
p2477
I00
sS'ac_state'
p2478
I00
sS'total_run_time_home'
p2479
F68.83185426666665
sS'total_run_time_away'
p2480
F2.0004379833333332
sS'total_trans_time'
p2481
I0
sS'away'
p2482
I00
sS'target_type'
p2483
Vcool
p2484
sS'current_temperature'
p2485
F78.67399999999999
sS'total_run_time'
p2486
F70.83229224999998
sS'target_temperature'
p2487
F78.20060000000001
sS'outside_temperature'
p2488
F70.7
sS'$timestamp'
p2489
S'2015-05-06T22:46:52.253456'
p2490
sa(dp2491
S'trans_time'
p2492
I00
sS'ac_state'
p2493
I00
sS'total_run_time_home'
p2494
F68.83185426666665
sS'total_run_time_away'
p2495
F2.0004379833333332
sS'total_trans_time'
p2496
I0
sS'away'
p2497
I00
sS'target_type'
p2498
Vcool
p2499
sS'current_temperature'
p2500
F78.67399999999999
sS'total_run_time'
p2501
F70.83229224999998
sS'target_temperature'
p2502
F78.20060000000001
sS'outside_temperature'
p2503
F70.7
sS'$timestamp'
p2504
S'2015-05-06T22:48:51.805106'
p2505
sa(dp2506
S'trans_time'
p2507
I00
sS'ac_state'
p2508
I00
sS'total_run_time_home'
p2509
F68.83185426666665
sS'total_run_time_away'
p2510
F2.0004379833333332
sS'total_trans_time'
p2511
I0
sS'away'
p2512
I00
sS'target_type'
p2513
Vcool
p2514
sS'current_temperature'
p2515
F78.67399999999999
sS'total_run_time'
p2516
F70.83229224999998
sS'target_temperature'
p2517
F78.20060000000001
sS'outside_temperature'
p2518
F70.7
sS'$timestamp'
p2519
S'2015-05-06T22:50:51.771973'
p2520
sa(dp2521
S'trans_time'
p2522
I00
sS'ac_state'
p2523
I00
sS'total_run_time_home'
p2524
F68.83185426666665
sS'total_run_time_away'
p2525
F2.0004379833333332
sS'total_trans_time'
p2526
I0
sS'away'
p2527
I00
sS'target_type'
p2528
Vcool
p2529
sS'current_temperature'
p2530
F78.67399999999999
sS'total_run_time'
p2531
F70.83229224999998
sS'target_temperature'
p2532
F78.20060000000001
sS'outside_temperature'
p2533
F70.7
sS'$timestamp'
p2534
S'2015-05-06T22:52:51.940137'
p2535
sa(dp2536
S'trans_time'
p2537
I00
sS'ac_state'
p2538
I01
sS'total_run_time_home'
p2539
F68.83185426666665
sS'total_run_time_away'
p2540
F2.0004379833333332
sS'total_trans_time'
p2541
I0
sS'away'
p2542
I00
sS'target_type'
p2543
Vcool
p2544
sS'current_temperature'
p2545
F78.67399999999999
sS'total_run_time'
p2546
F70.83229224999998
sS'target_temperature'
p2547
F78.20060000000001
sS'outside_temperature'
p2548
F70.7
sS'$timestamp'
p2549
S'2015-05-06T22:54:51.723540'
p2550
sa(dp2551
S'trans_time'
p2552
I00
sS'ac_state'
p2553
I01
sS'total_run_time_home'
p2554
F70.82975573333331
sS'total_run_time_away'
p2555
F2.0004379833333332
sS'total_trans_time'
p2556
I0
sS'away'
p2557
I00
sS'target_type'
p2558
Vcool
p2559
sS'current_temperature'
p2560
F78.67399999999999
sS'total_run_time'
p2561
F72.83019371666664
sS'target_temperature'
p2562
F78.20060000000001
sS'outside_temperature'
p2563
F70.7
sS'$timestamp'
p2564
S'2015-05-06T22:56:51.597628'
p2565
sa(dp2566
S'trans_time'
p2567
I00
sS'ac_state'
p2568
I00
sS'total_run_time_home'
p2569
F72.83511506666665
sS'total_run_time_away'
p2570
F2.0004379833333332
sS'total_trans_time'
p2571
I0
sS'away'
p2572
I00
sS'target_type'
p2573
Vcool
p2574
sS'current_temperature'
p2575
F78.17
sS'total_run_time'
p2576
F74.83555304999997
sS'target_temperature'
p2577
F78.20060000000001
sS'outside_temperature'
p2578
F70.3
sS'$timestamp'
p2579
S'2015-05-06T22:58:51.919188'
p2580
sa(dp2581
S'trans_time'
p2582
I00
sS'ac_state'
p2583
I00
sS'total_run_time_home'
p2584
F72.83511506666665
sS'total_run_time_away'
p2585
F2.0004379833333332
sS'total_trans_time'
p2586
I0
sS'away'
p2587
I00
sS'target_type'
p2588
Vcool
p2589
sS'current_temperature'
p2590
F76.496
sS'total_run_time'
p2591
F74.83555304999997
sS'target_temperature'
p2592
F78.20060000000001
sS'outside_temperature'
p2593
F70.3
sS'$timestamp'
p2594
S'2015-05-06T23:00:51.599330'
p2595
sa(dp2596
S'trans_time'
p2597
I00
sS'ac_state'
p2598
I00
sS'total_run_time_home'
p2599
F72.83511506666665
sS'total_run_time_away'
p2600
F2.0004379833333332
sS'total_trans_time'
p2601
I0
sS'away'
p2602
I00
sS'target_type'
p2603
Vcool
p2604
sS'current_temperature'
p2605
F76.496
sS'total_run_time'
p2606
F74.83555304999997
sS'target_temperature'
p2607
F78.20060000000001
sS'outside_temperature'
p2608
F70.3
sS'$timestamp'
p2609
S'2015-05-06T23:02:51.752445'
p2610
sa(dp2611
S'trans_time'
p2612
I00
sS'ac_state'
p2613
I00
sS'total_run_time_home'
p2614
F72.83511506666665
sS'total_run_time_away'
p2615
F2.0004379833333332
sS'total_trans_time'
p2616
I0
sS'away'
p2617
I00
sS'target_type'
p2618
Vcool
p2619
sS'current_temperature'
p2620
F76.496
sS'total_run_time'
p2621
F74.83555304999997
sS'target_temperature'
p2622
F78.20060000000001
sS'outside_temperature'
p2623
F70.0
sS'$timestamp'
p2624
S'2015-05-06T23:04:52.930070'
p2625
sa(dp2626
S'trans_time'
p2627
I00
sS'ac_state'
p2628
I00
sS'total_run_time_home'
p2629
F72.83511506666665
sS'total_run_time_away'
p2630
F2.0004379833333332
sS'total_trans_time'
p2631
I0
sS'away'
p2632
I00
sS'target_type'
p2633
Vcool
p2634
sS'current_temperature'
p2635
F77.55799999999999
sS'total_run_time'
p2636
F74.83555304999997
sS'target_temperature'
p2637
F78.20060000000001
sS'outside_temperature'
p2638
F70.0
sS'$timestamp'
p2639
S'2015-05-06T23:06:51.727953'
p2640
sa(dp2641
S'trans_time'
p2642
I00
sS'ac_state'
p2643
I00
sS'total_run_time_home'
p2644
F72.83511506666665
sS'total_run_time_away'
p2645
F2.0004379833333332
sS'total_trans_time'
p2646
I0
sS'away'
p2647
I00
sS'target_type'
p2648
Vcool
p2649
sS'current_temperature'
p2650
F77.55799999999999
sS'total_run_time'
p2651
F74.83555304999997
sS'target_temperature'
p2652
F78.20060000000001
sS'outside_temperature'
p2653
F70.0
sS'$timestamp'
p2654
S'2015-05-06T23:08:51.809155'
p2655
sa(dp2656
S'trans_time'
p2657
I00
sS'ac_state'
p2658
I00
sS'total_run_time_home'
p2659
F72.83511506666665
sS'total_run_time_away'
p2660
F2.0004379833333332
sS'total_trans_time'
p2661
I0
sS'away'
p2662
I00
sS'target_type'
p2663
Vcool
p2664
sS'current_temperature'
p2665
F77.55799999999999
sS'total_run_time'
p2666
F74.83555304999997
sS'target_temperature'
p2667
F78.20060000000001
sS'outside_temperature'
p2668
F69.9
sS'$timestamp'
p2669
S'2015-05-06T23:10:52.299688'
p2670
sa(dp2671
S'trans_time'
p2672
I00
sS'ac_state'
p2673
I00
sS'total_run_time_home'
p2674
F72.83511506666665
sS'total_run_time_away'
p2675
F2.0004379833333332
sS'total_trans_time'
p2676
I0
sS'away'
p2677
I00
sS'target_type'
p2678
Vcool
p2679
sS'current_temperature'
p2680
F77.55799999999999
sS'total_run_time'
p2681
F74.83555304999997
sS'target_temperature'
p2682
F78.20060000000001
sS'outside_temperature'
p2683
F69.9
sS'$timestamp'
p2684
S'2015-05-06T23:12:51.730579'
p2685
sa(dp2686
S'trans_time'
p2687
I00
sS'ac_state'
p2688
I00
sS'total_run_time_home'
p2689
F72.83511506666665
sS'total_run_time_away'
p2690
F2.0004379833333332
sS'total_trans_time'
p2691
I0
sS'away'
p2692
I00
sS'target_type'
p2693
Vcool
p2694
sS'current_temperature'
p2695
F77.55799999999999
sS'total_run_time'
p2696
F74.83555304999997
sS'target_temperature'
p2697
F78.20060000000001
sS'outside_temperature'
p2698
F69.9
sS'$timestamp'
p2699
S'2015-05-06T23:14:51.610517'
p2700
sa(dp2701
S'trans_time'
p2702
I00
sS'ac_state'
p2703
I00
sS'total_run_time_home'
p2704
F72.83511506666665
sS'total_run_time_away'
p2705
F2.0004379833333332
sS'total_trans_time'
p2706
I0
sS'away'
p2707
I00
sS'target_type'
p2708
Vcool
p2709
sS'current_temperature'
p2710
F77.55799999999999
sS'total_run_time'
p2711
F74.83555304999997
sS'target_temperature'
p2712
F78.20060000000001
sS'outside_temperature'
p2713
F69.8
sS'$timestamp'
p2714
S'2015-05-06T23:16:51.986677'
p2715
sa(dp2716
S'trans_time'
p2717
I00
sS'ac_state'
p2718
I01
sS'total_run_time_home'
p2719
F72.83511506666665
sS'total_run_time_away'
p2720
F2.0004379833333332
sS'total_trans_time'
p2721
I0
sS'away'
p2722
I00
sS'target_type'
p2723
Vcool
p2724
sS'current_temperature'
p2725
F79.268
sS'total_run_time'
p2726
F74.83555304999997
sS'target_temperature'
p2727
F78.20060000000001
sS'outside_temperature'
p2728
F69.8
sS'$timestamp'
p2729
S'2015-05-06T23:18:51.606590'
p2730
sa(dp2731
S'trans_time'
p2732
I00
sS'ac_state'
p2733
I01
sS'total_run_time_home'
p2734
F74.83799909999998
sS'total_run_time_away'
p2735
F2.0004379833333332
sS'total_trans_time'
p2736
I0
sS'away'
p2737
I00
sS'target_type'
p2738
Vcool
p2739
sS'current_temperature'
p2740
F79.268
sS'total_run_time'
p2741
F76.8384370833333
sS'target_temperature'
p2742
F78.20060000000001
sS'outside_temperature'
p2743
F69.8
sS'$timestamp'
p2744
S'2015-05-06T23:20:51.779632'
p2745
sa(dp2746
S'trans_time'
p2747
I00
sS'ac_state'
p2748
I01
sS'total_run_time_home'
p2749
F76.83950244999997
sS'total_run_time_away'
p2750
F2.0004379833333332
sS'total_trans_time'
p2751
I0
sS'away'
p2752
I00
sS'target_type'
p2753
Vcool
p2754
sS'current_temperature'
p2755
F79.268
sS'total_run_time'
p2756
F78.8399404333333
sS'target_temperature'
p2757
F78.20060000000001
sS'outside_temperature'
p2758
F70.2
sS'$timestamp'
p2759
S'2015-05-06T23:22:51.869833'
p2760
sa(dp2761
S'trans_time'
p2762
I00
sS'ac_state'
p2763
I00
sS'total_run_time_home'
p2764
F78.83524049999997
sS'total_run_time_away'
p2765
F2.0004379833333332
sS'total_trans_time'
p2766
I0
sS'away'
p2767
I00
sS'target_type'
p2768
Vcool
p2769
sS'current_temperature'
p2770
F77.324
sS'total_run_time'
p2771
F80.8356784833333
sS'target_temperature'
p2772
F78.20060000000001
sS'outside_temperature'
p2773
F70.2
sS'$timestamp'
p2774
S'2015-05-06T23:24:51.614116'
p2775
sa(dp2776
S'trans_time'
p2777
I00
sS'ac_state'
p2778
I00
sS'total_run_time_home'
p2779
F78.83524049999997
sS'total_run_time_away'
p2780
F2.0004379833333332
sS'total_trans_time'
p2781
I0
sS'away'
p2782
I00
sS'target_type'
p2783
Vcool
p2784
sS'current_temperature'
p2785
F76.478
sS'total_run_time'
p2786
F80.8356784833333
sS'target_temperature'
p2787
F78.20060000000001
sS'outside_temperature'
p2788
F70.2
sS'$timestamp'
p2789
S'2015-05-06T23:26:51.610424'
p2790
sa(dp2791
S'trans_time'
p2792
I00
sS'ac_state'
p2793
I00
sS'total_run_time_home'
p2794
F78.83524049999997
sS'total_run_time_away'
p2795
F2.0004379833333332
sS'total_trans_time'
p2796
I0
sS'away'
p2797
I00
sS'target_type'
p2798
Vcool
p2799
sS'current_temperature'
p2800
F76.568
sS'total_run_time'
p2801
F80.8356784833333
sS'target_temperature'
p2802
F78.20060000000001
sS'outside_temperature'
p2803
F70.6
sS'$timestamp'
p2804
S'2015-05-06T23:28:52.227146'
p2805
sa(dp2806
S'trans_time'
p2807
I00
sS'ac_state'
p2808
I00
sS'total_run_time_home'
p2809
F78.83524049999997
sS'total_run_time_away'
p2810
F2.0004379833333332
sS'total_trans_time'
p2811
I0
sS'away'
p2812
I00
sS'target_type'
p2813
Vcool
p2814
sS'current_temperature'
p2815
F76.568
sS'total_run_time'
p2816
F80.8356784833333
sS'target_temperature'
p2817
F78.20060000000001
sS'outside_temperature'
p2818
F70.6
sS'$timestamp'
p2819
S'2015-05-06T23:30:51.637750'
p2820
sa(dp2821
S'trans_time'
p2822
I00
sS'ac_state'
p2823
I00
sS'total_run_time_home'
p2824
F78.83524049999997
sS'total_run_time_away'
p2825
F2.0004379833333332
sS'total_trans_time'
p2826
I0
sS'away'
p2827
I00
sS'target_type'
p2828
Vcool
p2829
sS'current_temperature'
p2830
F76.568
sS'total_run_time'
p2831
F80.8356784833333
sS'target_temperature'
p2832
F78.20060000000001
sS'outside_temperature'
p2833
F70.6
sS'$timestamp'
p2834
S'2015-05-06T23:32:51.613076'
p2835
sa(dp2836
S'trans_time'
p2837
I00
sS'ac_state'
p2838
I00
sS'total_run_time_home'
p2839
F78.83524049999997
sS'total_run_time_away'
p2840
F2.0004379833333332
sS'total_trans_time'
p2841
I0
sS'away'
p2842
I00
sS'target_type'
p2843
Vcool
p2844
sS'current_temperature'
p2845
F76.568
sS'total_run_time'
p2846
F80.8356784833333
sS'target_temperature'
p2847
F78.20060000000001
sS'outside_temperature'
p2848
F70.7
sS'$timestamp'
p2849
S'2015-05-06T23:34:52.683956'
p2850
sa(dp2851
S'trans_time'
p2852
I00
sS'ac_state'
p2853
I00
sS'total_run_time_home'
p2854
F78.83524049999997
sS'total_run_time_away'
p2855
F2.0004379833333332
sS'total_trans_time'
p2856
I0
sS'away'
p2857
I00
sS'target_type'
p2858
Vcool
p2859
sS'current_temperature'
p2860
F76.568
sS'total_run_time'
p2861
F80.8356784833333
sS'target_temperature'
p2862
F78.20060000000001
sS'outside_temperature'
p2863
F70.7
sS'$timestamp'
p2864
S'2015-05-06T23:36:51.631277'
p2865
sa(dp2866
S'trans_time'
p2867
I00
sS'ac_state'
p2868
I00
sS'total_run_time_home'
p2869
F78.83524049999997
sS'total_run_time_away'
p2870
F2.0004379833333332
sS'total_trans_time'
p2871
I0
sS'away'
p2872
I00
sS'target_type'
p2873
Vcool
p2874
sS'current_temperature'
p2875
F76.568
sS'total_run_time'
p2876
F80.8356784833333
sS'target_temperature'
p2877
F78.20060000000001
sS'outside_temperature'
p2878
F70.7
sS'$timestamp'
p2879
S'2015-05-06T23:38:51.630623'
p2880
sa(dp2881
S'trans_time'
p2882
I00
sS'ac_state'
p2883
I00
sS'total_run_time_home'
p2884
F78.83524049999997
sS'total_run_time_away'
p2885
F2.0004379833333332
sS'total_trans_time'
p2886
I0
sS'away'
p2887
I00
sS'target_type'
p2888
Vcool
p2889
sS'current_temperature'
p2890
F76.568
sS'total_run_time'
p2891
F80.8356784833333
sS'target_temperature'
p2892
F78.20060000000001
sS'outside_temperature'
p2893
F70.7
sS'$timestamp'
p2894
S'2015-05-06T23:40:51.825236'
p2895
sa(dp2896
S'trans_time'
p2897
I00
sS'ac_state'
p2898
I00
sS'total_run_time_home'
p2899
F78.83524049999997
sS'total_run_time_away'
p2900
F2.0004379833333332
sS'total_trans_time'
p2901
I0
sS'away'
p2902
I00
sS'target_type'
p2903
Vcool
p2904
sS'current_temperature'
p2905
F76.568
sS'total_run_time'
p2906
F80.8356784833333
sS'target_temperature'
p2907
F78.20060000000001
sS'outside_temperature'
p2908
F70.7
sS'$timestamp'
p2909
S'2015-05-06T23:42:51.618236'
p2910
sa(dp2911
S'trans_time'
p2912
I00
sS'ac_state'
p2913
I00
sS'total_run_time_home'
p2914
F78.83524049999997
sS'total_run_time_away'
p2915
F2.0004379833333332
sS'total_trans_time'
p2916
I0
sS'away'
p2917
I00
sS'target_type'
p2918
Vcool
p2919
sS'current_temperature'
p2920
F76.568
sS'total_run_time'
p2921
F80.8356784833333
sS'target_temperature'
p2922
F78.20060000000001
sS'outside_temperature'
p2923
F70.7
sS'$timestamp'
p2924
S'2015-05-06T23:44:51.607147'
p2925
sa(dp2926
S'trans_time'
p2927
I00
sS'ac_state'
p2928
I00
sS'total_run_time_home'
p2929
F78.83524049999997
sS'total_run_time_away'
p2930
F2.0004379833333332
sS'total_trans_time'
p2931
I0
sS'away'
p2932
I00
sS'target_type'
p2933
Vcool
p2934
sS'current_temperature'
p2935
F76.568
sS'total_run_time'
p2936
F80.8356784833333
sS'target_temperature'
p2937
F78.20060000000001
sS'outside_temperature'
p2938
F70.7
sS'$timestamp'
p2939
S'2015-05-06T23:46:52.258878'
p2940
sa(dp2941
S'trans_time'
p2942
I00
sS'ac_state'
p2943
I00
sS'total_run_time_home'
p2944
F78.83524049999997
sS'total_run_time_away'
p2945
F2.0004379833333332
sS'total_trans_time'
p2946
I0
sS'away'
p2947
I00
sS'target_type'
p2948
Vcool
p2949
sS'current_temperature'
p2950
F76.568
sS'total_run_time'
p2951
F80.8356784833333
sS'target_temperature'
p2952
F78.20060000000001
sS'outside_temperature'
p2953
F70.7
sS'$timestamp'
p2954
S'2015-05-06T23:48:51.651558'
p2955
sa(dp2956
S'trans_time'
p2957
I00
sS'ac_state'
p2958
I00
sS'total_run_time_home'
p2959
F78.83524049999997
sS'total_run_time_away'
p2960
F2.0004379833333332
sS'total_trans_time'
p2961
I0
sS'away'
p2962
I00
sS'target_type'
p2963
Vcool
p2964
sS'current_temperature'
p2965
F76.568
sS'total_run_time'
p2966
F80.8356784833333
sS'target_temperature'
p2967
F78.20060000000001
sS'outside_temperature'
p2968
F70.7
sS'$timestamp'
p2969
S'2015-05-06T23:50:51.798570'
p2970
sa(dp2971
S'trans_time'
p2972
I00
sS'ac_state'
p2973
I00
sS'total_run_time_home'
p2974
F78.83524049999997
sS'total_run_time_away'
p2975
F2.0004379833333332
sS'total_trans_time'
p2976
I0
sS'away'
p2977
I00
sS'target_type'
p2978
Vcool
p2979
sS'current_temperature'
p2980
F76.568
sS'total_run_time'
p2981
F80.8356784833333
sS'target_temperature'
p2982
F78.20060000000001
sS'outside_temperature'
p2983
F70.7
sS'$timestamp'
p2984
S'2015-05-06T23:52:51.814707'
p2985
sa(dp2986
S'trans_time'
p2987
I00
sS'ac_state'
p2988
I00
sS'total_run_time_home'
p2989
F78.83524049999997
sS'total_run_time_away'
p2990
F2.0004379833333332
sS'total_trans_time'
p2991
I0
sS'away'
p2992
I00
sS'target_type'
p2993
Vcool
p2994
sS'current_temperature'
p2995
F78.69200000000001
sS'total_run_time'
p2996
F80.8356784833333
sS'target_temperature'
p2997
F78.20060000000001
sS'outside_temperature'
p2998
F70.7
sS'$timestamp'
p2999
S'2015-05-06T23:54:51.636210'
p3000
sa(dp3001
S'trans_time'
p3002
I00
sS'ac_state'
p3003
I00
sS'total_run_time_home'
p3004
F78.83524049999997
sS'total_run_time_away'
p3005
F2.0004379833333332
sS'total_trans_time'
p3006
I0
sS'away'
p3007
I00
sS'target_type'
p3008
Vcool
p3009
sS'current_temperature'
p3010
F78.69200000000001
sS'total_run_time'
p3011
F80.8356784833333
sS'target_temperature'
p3012
F78.20060000000001
sS'outside_temperature'
p3013
F70.7
sS'$timestamp'
p3014
S'2015-05-06T23:56:51.614176'
p3015
sa(dp3016
S'trans_time'
p3017
I00
sS'ac_state'
p3018
I00
sS'total_run_time_home'
p3019
F78.83524049999997
sS'total_run_time_away'
p3020
F2.0004379833333332
sS'total_trans_time'
p3021
I0
sS'away'
p3022
I00
sS'target_type'
p3023
Vcool
p3024
sS'current_temperature'
p3025
F78.69200000000001
sS'total_run_time'
p3026
F80.8356784833333
sS'target_temperature'
p3027
F78.20060000000001
sS'outside_temperature'
p3028
F70.5
sS'$timestamp'
p3029
S'2015-05-06T23:58:51.995438'
p3030
sa.