(lp0
(dp1
S'trans_time'
p2
I00
sS'ac_state'
p3
I01
sS'total_run_time_home'
p4
I0
sS'total_run_time_away'
p5
I0
sS'total_trans_time'
p6
I0
sS'away'
p7
I00
sS'target_type'
p8
Vcool
p9
sS'current_temperature'
p10
F78.71
sS'total_run_time'
p11
I0
sS'target_temperature'
p12
F75.999992
sS'outside_temperature'
p13
F83.7
sS'$timestamp'
p14
S'2015-05-06T12:01:18'
p15
sa(dp16
S'trans_time'
p17
I00
sS'ac_state'
p18
I01
sS'total_run_time_home'
p19
F4.95
sS'total_run_time_away'
p20
I0
sS'total_trans_time'
p21
I0
sS'away'
p22
I00
sS'target_type'
p23
Vcool
p24
sS'current_temperature'
p25
F78.008
sS'total_run_time'
p26
F4.95
sS'target_temperature'
p27
F77.0
sS'outside_temperature'
p28
F83.7
sS'$timestamp'
p29
S'2015-05-06T12:06:15'
p30
sa(dp31
S'trans_time'
p32
I00
sS'ac_state'
p33
I01
sS'total_run_time_home'
p34
F5.283333333333333
sS'total_run_time_away'
p35
I0
sS'total_trans_time'
p36
I0
sS'away'
p37
I00
sS'target_type'
p38
Vcool
p39
sS'current_temperature'
p40
F78.008
sS'total_run_time'
p41
F5.283333333333333
sS'target_temperature'
p42
F78.000008
sS'outside_temperature'
p43
F83.7
sS'$timestamp'
p44
S'2015-05-06T12:06:35'
p45
sa(dp46
S'trans_time'
p47
I00
sS'ac_state'
p48
I00
sS'total_run_time_home'
p49
F5.333333333333333
sS'total_run_time_away'
p50
I0
sS'total_trans_time'
p51
I0
sS'away'
p52
I00
sS'target_type'
p53
Vcool
p54
sS'current_temperature'
p55
F78.008
sS'total_run_time'
p56
F5.333333333333333
sS'target_temperature'
p57
F78.000008
sS'outside_temperature'
p58
F83.7
sS'$timestamp'
p59
S'2015-05-06T12:06:38'
p60
sa.