(lp0
(dp1
S'trans_time'
p2
I00
sS'ac_state'
p3
I00
sS'total_run_time_home'
p4
I0
sS'total_run_time_away'
p5
I0
sS'total_trans_time'
p6
I0
sS'away'
p7
I01
sS'target_type'
p8
Vcool
p9
sS'current_temperature'
p10
F79.538
sS'total_run_time'
p11
I0
sS'target_temperature'
p12
F79.6712
sS'outside_temperature'
p13
F86.7
sS'$timestamp'
p14
S'2015-05-06T14:20:35'
p15
sa(dp16
S'trans_time'
p17
I00
sS'ac_state'
p18
I00
sS'total_run_time_home'
p19
I0
sS'total_run_time_away'
p20
I0
sS'total_trans_time'
p21
I0
sS'away'
p22
I01
sS'target_type'
p23
Vcool
p24
sS'current_temperature'
p25
F79.538
sS'total_run_time'
p26
I0
sS'target_temperature'
p27
F79.6712
sS'outside_temperature'
p28
F89.1
sS'$timestamp'
p29
S'2015-05-06T14:22:35'
p30
sa(dp31
S'trans_time'
p32
I00
sS'ac_state'
p33
I00
sS'total_run_time_home'
p34
I0
sS'total_run_time_away'
p35
I0
sS'total_trans_time'
p36
I0
sS'away'
p37
I01
sS'target_type'
p38
Vcool
p39
sS'current_temperature'
p40
F79.538
sS'total_run_time'
p41
I0
sS'target_temperature'
p42
F28.805
sS'outside_temperature'
p43
F89.1
sS'$timestamp'
p44
S'2015-05-06T14:26:35'
p45
sa.