(lp0
(dp1
S'trans_time'
p2
I00
sS'ac_state'
p3
I00
sS'total_run_time_home'
p4
I0
sS'total_run_time_away'
p5
I0
sS'total_trans_time'
p6
I0
sS'away'
p7
I00
sS'target_type'
p8
Vcool
p9
sS'current_temperature'
p10
F77.88199999999999
sS'total_run_time'
p11
I0
sS'target_temperature'
p12
F78.000008
sS'outside_temperature'
p13
F90.7
sS'$timestamp'
p14
S'2015-05-06T17:23:30.149598'
p15
sa(dp16
S'trans_time'
p17
I00
sS'ac_state'
p18
I00
sS'total_run_time_home'
p19
I0
sS'total_run_time_away'
p20
I0
sS'total_trans_time'
p21
I0
sS'away'
p22
I00
sS'target_type'
p23
Vcool
p24
sS'current_temperature'
p25
F77.88199999999999
sS'total_run_time'
p26
I0
sS'target_temperature'
p27
F78.000008
sS'outside_temperature'
p28
F90.7
sS'$timestamp'
p29
S'2015-05-06T17:23:59.928109'
p30
sa(dp31
S'trans_time'
p32
I00
sS'ac_state'
p33
I00
sS'total_run_time_home'
p34
I0
sS'total_run_time_away'
p35
I0
sS'total_trans_time'
p36
I0
sS'away'
p37
I00
sS'target_type'
p38
Vcool
p39
sS'current_temperature'
p40
F77.88199999999999
sS'total_run_time'
p41
I0
sS'target_temperature'
p42
F75.999992
sS'outside_temperature'
p43
F90.7
sS'$timestamp'
p44
S'2015-05-06T17:24:26.581624'
p45
sa(dp46
S'trans_time'
p47
I00
sS'ac_state'
p48
I00
sS'total_run_time_home'
p49
I0
sS'total_run_time_away'
p50
I0
sS'total_trans_time'
p51
I0
sS'away'
p52
I00
sS'target_type'
p53
Vcool
p54
sS'current_temperature'
p55
F77.88199999999999
sS'total_run_time'
p56
I0
sS'target_temperature'
p57
F75.999992
sS'outside_temperature'
p58
F90.7
sS'$timestamp'
p59
S'2015-05-06T17:24:38.585977'
p60
sa(dp61
S'trans_time'
p62
I00
sS'ac_state'
p63
I00
sS'total_run_time_home'
p64
I0
sS'total_run_time_away'
p65
I0
sS'total_trans_time'
p66
I0
sS'away'
p67
I00
sS'target_type'
p68
Vcool
p69
sS'current_temperature'
p70
F77.88199999999999
sS'total_run_time'
p71
I0
sS'target_temperature'
p72
F75.999992
sS'outside_temperature'
p73
F90.7
sS'$timestamp'
p74
S'2015-05-06T17:24:57.970071'
p75
sa(dp76
S'trans_time'
p77
I00
sS'ac_state'
p78
I00
sS'total_run_time_home'
p79
I0
sS'total_run_time_away'
p80
I0
sS'total_trans_time'
p81
I0
sS'away'
p82
I00
sS'target_type'
p83
Vcool
p84
sS'current_temperature'
p85
F77.88199999999999
sS'total_run_time'
p86
I0
sS'target_temperature'
p87
F73.999994
sS'outside_temperature'
p88
F90.7
sS'$timestamp'
p89
S'2015-05-06T17:25:16.337003'
p90
sa(dp91
S'trans_time'
p92
I00
sS'ac_state'
p93
I01
sS'total_run_time_home'
p94
I0
sS'total_run_time_away'
p95
I0
sS'total_trans_time'
p96
I0
sS'away'
p97
I01
sS'target_type'
p98
Vcool
p99
sS'current_temperature'
p100
F77.432
sS'total_run_time'
p101
I0
sS'target_temperature'
p102
F84.391628
sS'outside_temperature'
p103
F90.7
sS'$timestamp'
p104
S'2015-05-06T17:25:34.000534'
p105
sa(dp106
S'trans_time'
p107
I00
sS'ac_state'
p108
I00
sS'total_run_time_home'
p109
F0.24060736666666666
sS'total_run_time_away'
p110
I0
sS'total_trans_time'
p111
I0
sS'away'
p112
I00
sS'target_type'
p113
Vcool
p114
sS'current_temperature'
p115
F77.432
sS'total_run_time'
p116
F0.24060736666666666
sS'target_temperature'
p117
F75.999992
sS'outside_temperature'
p118
F90.7
sS'$timestamp'
p119
S'2015-05-06T17:25:48.436976'
p120
sa(dp121
S'trans_time'
p122
I00
sS'ac_state'
p123
I00
sS'total_run_time_home'
p124
F0.24060736666666666
sS'total_run_time_away'
p125
I0
sS'total_trans_time'
p126
I0
sS'away'
p127
I00
sS'target_type'
p128
Vcool
p129
sS'current_temperature'
p130
F77.432
sS'total_run_time'
p131
F0.24060736666666666
sS'target_temperature'
p132
F75.999992
sS'outside_temperature'
p133
F90.7
sS'$timestamp'
p134
S'2015-05-06T17:26:09.843651'
p135
sa(dp136
S'trans_time'
p137
I00
sS'ac_state'
p138
I00
sS'total_run_time_home'
p139
F0.24060736666666666
sS'total_run_time_away'
p140
I0
sS'total_trans_time'
p141
I0
sS'away'
p142
I00
sS'target_type'
p143
Vcool
p144
sS'current_temperature'
p145
F77.432
sS'total_run_time'
p146
F0.24060736666666666
sS'target_temperature'
p147
F75.999992
sS'outside_temperature'
p148
F90.7
sS'$timestamp'
p149
S'2015-05-06T17:26:30.675391'
p150
sa(dp151
S'trans_time'
p152
I00
sS'ac_state'
p153
I01
sS'total_run_time_home'
p154
F0.24060736666666666
sS'total_run_time_away'
p155
I0
sS'total_trans_time'
p156
I0
sS'away'
p157
I00
sS'target_type'
p158
Vcool
p159
sS'current_temperature'
p160
F77.432
sS'total_run_time'
p161
F0.24060736666666666
sS'target_temperature'
p162
F75.999992
sS'outside_temperature'
p163
F90.7
sS'$timestamp'
p164
S'2015-05-06T17:28:14.734525'
p165
sa(dp166
S'trans_time'
p167
I00
sS'ac_state'
p168
I01
sS'total_run_time_home'
p169
F0.5175644
sS'total_run_time_away'
p170
I0
sS'total_trans_time'
p171
I0
sS'away'
p172
I00
sS'target_type'
p173
Vcool
p174
sS'current_temperature'
p175
F77.432
sS'total_run_time'
p176
F0.5175644
sS'target_temperature'
p177
F75.999992
sS'outside_temperature'
p178
F90.7
sS'$timestamp'
p179
S'2015-05-06T17:28:31.351947'
p180
sa(dp181
S'trans_time'
p182
I00
sS'ac_state'
p183
I01
sS'total_run_time_home'
p184
F0.8120552666666667
sS'total_run_time_away'
p185
I0
sS'total_trans_time'
p186
I0
sS'away'
p187
I00
sS'target_type'
p188
Vcool
p189
sS'current_temperature'
p190
F77.432
sS'total_run_time'
p191
F0.8120552666666667
sS'target_temperature'
p192
F75.999992
sS'outside_temperature'
p193
F90.7
sS'$timestamp'
p194
S'2015-05-06T17:28:49.021399'
p195
sa(dp196
S'trans_time'
p197
I00
sS'ac_state'
p198
I00
sS'total_run_time_home'
p199
F3.8024878499999994
sS'total_run_time_away'
p200
I0
sS'total_trans_time'
p201
I0
sS'away'
p202
I00
sS'target_type'
p203
Vcool
p204
sS'current_temperature'
p205
F77.612
sS'total_run_time'
p206
F3.8024878499999994
sS'target_temperature'
p207
F78.999998
sS'outside_temperature'
p208
F90.7
sS'$timestamp'
p209
S'2015-05-06T17:31:48.447354'
p210
sa(dp211
S'trans_time'
p212
I00
sS'ac_state'
p213
I00
sS'total_run_time_home'
p214
F3.8024878499999994
sS'total_run_time_away'
p215
I0
sS'total_trans_time'
p216
I0
sS'away'
p217
I00
sS'target_type'
p218
Vcool
p219
sS'current_temperature'
p220
F77.612
sS'total_run_time'
p221
F3.8024878499999994
sS'target_temperature'
p222
F78.999998
sS'outside_temperature'
p223
F90.7
sS'$timestamp'
p224
S'2015-05-06T17:33:55.314633'
p225
sa(dp226
S'trans_time'
p227
I00
sS'ac_state'
p228
I00
sS'total_run_time_home'
p229
F3.8024878499999994
sS'total_run_time_away'
p230
I0
sS'total_trans_time'
p231
I0
sS'away'
p232
I00
sS'target_type'
p233
Vcool
p234
sS'current_temperature'
p235
F78.53
sS'total_run_time'
p236
F3.8024878499999994
sS'target_temperature'
p237
F78.999998
sS'outside_temperature'
p238
F90.7
sS'$timestamp'
p239
S'2015-05-06T17:34:48.703199'
p240
sa(dp241
S'trans_time'
p242
I00
sS'ac_state'
p243
I00
sS'total_run_time_home'
p244
F3.8024878499999994
sS'total_run_time_away'
p245
I0
sS'total_trans_time'
p246
I0
sS'away'
p247
I00
sS'target_type'
p248
Vcool
p249
sS'current_temperature'
p250
F78.53
sS'total_run_time'
p251
F3.8024878499999994
sS'target_temperature'
p252
F78.999998
sS'outside_temperature'
p253
F90.7
sS'$timestamp'
p254
S'2015-05-06T17:37:48.454170'
p255
sa(dp256
S'trans_time'
p257
I00
sS'ac_state'
p258
I00
sS'total_run_time_home'
p259
F3.8024878499999994
sS'total_run_time_away'
p260
I0
sS'total_trans_time'
p261
I0
sS'away'
p262
I00
sS'target_type'
p263
Vcool
p264
sS'current_temperature'
p265
F78.53
sS'total_run_time'
p266
F3.8024878499999994
sS'target_temperature'
p267
F78.999998
sS'outside_temperature'
p268
F89.6
sS'$timestamp'
p269
S'2015-05-06T17:40:48.612347'
p270
sa(dp271
S'trans_time'
p272
I00
sS'ac_state'
p273
I00
sS'total_run_time_home'
p274
F3.8024878499999994
sS'total_run_time_away'
p275
I0
sS'total_trans_time'
p276
I0
sS'away'
p277
I00
sS'target_type'
p278
Vcool
p279
sS'current_temperature'
p280
F79.898
sS'total_run_time'
p281
F3.8024878499999994
sS'target_temperature'
p282
F78.999998
sS'outside_temperature'
p283
F89.6
sS'$timestamp'
p284
S'2015-05-06T17:43:48.473286'
p285
sa(dp286
S'trans_time'
p287
I00
sS'ac_state'
p288
I00
sS'total_run_time_home'
p289
F3.8024878499999994
sS'total_run_time_away'
p290
I0
sS'total_trans_time'
p291
I0
sS'away'
p292
I00
sS'target_type'
p293
Vcool
p294
sS'current_temperature'
p295
F79.898
sS'total_run_time'
p296
F3.8024878499999994
sS'target_temperature'
p297
F80.000006
sS'outside_temperature'
p298
F89.6
sS'$timestamp'
p299
S'2015-05-06T17:46:11.753889'
p300
sa(dp301
S'trans_time'
p302
I00
sS'ac_state'
p303
I00
sS'total_run_time_home'
p304
F3.8024878499999994
sS'total_run_time_away'
p305
I0
sS'total_trans_time'
p306
I0
sS'away'
p307
I00
sS'target_type'
p308
Vcool
p309
sS'current_temperature'
p310
F79.898
sS'total_run_time'
p311
F3.8024878499999994
sS'target_temperature'
p312
F80.000006
sS'outside_temperature'
p313
F89.6
sS'$timestamp'
p314
S'2015-05-06T17:46:49.016529'
p315
sa(dp316
S'trans_time'
p317
I00
sS'ac_state'
p318
I00
sS'total_run_time_home'
p319
F3.8024878499999994
sS'total_run_time_away'
p320
I0
sS'total_trans_time'
p321
I0
sS'away'
p322
I00
sS'target_type'
p323
Vcool
p324
sS'current_temperature'
p325
F79.898
sS'total_run_time'
p326
F3.8024878499999994
sS'target_temperature'
p327
F80.000006
sS'outside_temperature'
p328
F89.6
sS'$timestamp'
p329
S'2015-05-06T17:49:48.463421'
p330
sa(dp331
S'trans_time'
p332
I00
sS'ac_state'
p333
I00
sS'total_run_time_home'
p334
F3.8024878499999994
sS'total_run_time_away'
p335
I0
sS'total_trans_time'
p336
I0
sS'away'
p337
I00
sS'target_type'
p338
Vcool
p339
sS'current_temperature'
p340
F79.898
sS'total_run_time'
p341
F3.8024878499999994
sS'target_temperature'
p342
F80.000006
sS'outside_temperature'
p343
F89.6
sS'$timestamp'
p344
S'2015-05-06T17:52:48.631286'
p345
sa(dp346
S'trans_time'
p347
I00
sS'ac_state'
p348
I00
sS'total_run_time_home'
p349
F3.8024878499999994
sS'total_run_time_away'
p350
I0
sS'total_trans_time'
p351
I0
sS'away'
p352
I01
sS'target_type'
p353
Vcool
p354
sS'current_temperature'
p355
F79.898
sS'total_run_time'
p356
F3.8024878499999994
sS'target_temperature'
p357
F84.391628
sS'outside_temperature'
p358
F89.6
sS'$timestamp'
p359
S'2015-05-06T17:55:48.448667'
p360
sa(dp361
S'trans_time'
p362
I00
sS'ac_state'
p363
I00
sS'total_run_time_home'
p364
F3.8024878499999994
sS'total_run_time_away'
p365
I0
sS'total_trans_time'
p366
I0
sS'away'
p367
I01
sS'target_type'
p368
Vcool
p369
sS'current_temperature'
p370
F79.898
sS'total_run_time'
p371
F3.8024878499999994
sS'target_temperature'
p372
F84.391628
sS'outside_temperature'
p373
F90.7
sS'$timestamp'
p374
S'2015-05-06T17:58:48.660554'
p375
sa(dp376
S'trans_time'
p377
I00
sS'ac_state'
p378
I00
sS'total_run_time_home'
p379
F3.8024878499999994
sS'total_run_time_away'
p380
I0
sS'total_trans_time'
p381
I0
sS'away'
p382
I01
sS'target_type'
p383
Vcool
p384
sS'current_temperature'
p385
F79.898
sS'total_run_time'
p386
F3.8024878499999994
sS'target_temperature'
p387
F84.391628
sS'outside_temperature'
p388
F90.7
sS'$timestamp'
p389
S'2015-05-06T18:01:48.467210'
p390
sa(dp391
S'trans_time'
p392
I00
sS'ac_state'
p393
I00
sS'total_run_time_home'
p394
F3.8024878499999994
sS'total_run_time_away'
p395
I0
sS'total_trans_time'
p396
I0
sS'away'
p397
I01
sS'target_type'
p398
Vcool
p399
sS'current_temperature'
p400
F79.898
sS'total_run_time'
p401
F3.8024878499999994
sS'target_temperature'
p402
F84.391628
sS'outside_temperature'
p403
F90.7
sS'$timestamp'
p404
S'2015-05-06T18:04:49.064434'
p405
sa(dp406
S'trans_time'
p407
I00
sS'ac_state'
p408
I00
sS'total_run_time_home'
p409
F3.8024878499999994
sS'total_run_time_away'
p410
I0
sS'total_trans_time'
p411
I0
sS'away'
p412
I01
sS'target_type'
p413
Vcool
p414
sS'current_temperature'
p415
F79.898
sS'total_run_time'
p416
F3.8024878499999994
sS'target_temperature'
p417
F84.391628
sS'outside_temperature'
p418
F90.7
sS'$timestamp'
p419
S'2015-05-06T18:07:48.462322'
p420
sa(dp421
S'trans_time'
p422
I00
sS'ac_state'
p423
I00
sS'total_run_time_home'
p424
F3.8024878499999994
sS'total_run_time_away'
p425
I0
sS'total_trans_time'
p426
I0
sS'away'
p427
I01
sS'target_type'
p428
Vcool
p429
sS'current_temperature'
p430
F79.898
sS'total_run_time'
p431
F3.8024878499999994
sS'target_temperature'
p432
F84.391628
sS'outside_temperature'
p433
F86.7
sS'$timestamp'
p434
S'2015-05-06T18:10:05.970975'
p435
sa(dp436
S'trans_time'
p437
I00
sS'ac_state'
p438
I00
sS'total_run_time_home'
p439
F3.8024878499999994
sS'total_run_time_away'
p440
I0
sS'total_trans_time'
p441
I0
sS'away'
p442
I00
sS'target_type'
p443
Vcool
p444
sS'current_temperature'
p445
F80.798
sS'total_run_time'
p446
F3.8024878499999994
sS'target_temperature'
p447
F80.000006
sS'outside_temperature'
p448
F86.7
sS'$timestamp'
p449
S'2015-05-06T18:10:48.609231'
p450
sa(dp451
S'trans_time'
p452
I00
sS'ac_state'
p453
I00
sS'total_run_time_home'
p454
F3.8024878499999994
sS'total_run_time_away'
p455
I0
sS'total_trans_time'
p456
I0
sS'away'
p457
I00
sS'target_type'
p458
Vcool
p459
sS'current_temperature'
p460
F80.798
sS'total_run_time'
p461
F3.8024878499999994
sS'target_temperature'
p462
F80.000006
sS'outside_temperature'
p463
F86.7
sS'$timestamp'
p464
S'2015-05-06T18:13:48.468066'
p465
sa(dp466
S'trans_time'
p467
I00
sS'ac_state'
p468
I00
sS'total_run_time_home'
p469
F3.8024878499999994
sS'total_run_time_away'
p470
I0
sS'total_trans_time'
p471
I0
sS'away'
p472
I00
sS'target_type'
p473
Vcool
p474
sS'current_temperature'
p475
F80.798
sS'total_run_time'
p476
F3.8024878499999994
sS'target_temperature'
p477
F80.000006
sS'outside_temperature'
p478
F86.7
sS'$timestamp'
p479
S'2015-05-06T18:16:48.721930'
p480
sa(dp481
S'trans_time'
p482
I00
sS'ac_state'
p483
I01
sS'total_run_time_home'
p484
F3.8024878499999994
sS'total_run_time_away'
p485
I0
sS'total_trans_time'
p486
I0
sS'away'
p487
I00
sS'target_type'
p488
Vcool
p489
sS'current_temperature'
p490
F80.798
sS'total_run_time'
p491
F3.8024878499999994
sS'target_temperature'
p492
F80.000006
sS'outside_temperature'
p493
F86.7
sS'$timestamp'
p494
S'2015-05-06T18:19:48.501117'
p495
sa(dp496
S'trans_time'
p497
I00
sS'ac_state'
p498
I01
sS'total_run_time_home'
p499
F6.805266133333333
sS'total_run_time_away'
p500
I0
sS'total_trans_time'
p501
I0
sS'away'
p502
I00
sS'target_type'
p503
Vcool
p504
sS'current_temperature'
p505
F80.798
sS'total_run_time'
p506
F6.805266133333333
sS'target_temperature'
p507
F80.000006
sS'outside_temperature'
p508
F84.0
sS'$timestamp'
p509
S'2015-05-06T18:22:48.667814'
p510
sa(dp511
S'trans_time'
p512
I00
sS'ac_state'
p513
I01
sS'total_run_time_home'
p514
F9.801705266666666
sS'total_run_time_away'
p515
I0
sS'total_trans_time'
p516
I0
sS'away'
p517
I00
sS'target_type'
p518
Vcool
p519
sS'current_temperature'
p520
F80.042
sS'total_run_time'
p521
F9.801705266666666
sS'target_temperature'
p522
F80.000006
sS'outside_temperature'
p523
F84.0
sS'$timestamp'
p524
S'2015-05-06T18:25:48.454162'
p525
sa(dp526
S'trans_time'
p527
I00
sS'ac_state'
p528
I00
sS'total_run_time_home'
p529
F12.812422016666666
sS'total_run_time_away'
p530
I0
sS'total_trans_time'
p531
I0
sS'away'
p532
I00
sS'target_type'
p533
Vcool
p534
sS'current_temperature'
p535
F78.998
sS'total_run_time'
p536
F12.812422016666666
sS'target_temperature'
p537
F80.000006
sS'outside_temperature'
p538
F83.5
sS'$timestamp'
p539
S'2015-05-06T18:28:49.097167'
p540
sa(dp541
S'trans_time'
p542
I00
sS'ac_state'
p543
I00
sS'total_run_time_home'
p544
F12.812422016666666
sS'total_run_time_away'
p545
I0
sS'total_trans_time'
p546
I0
sS'away'
p547
I00
sS'target_type'
p548
Vcool
p549
sS'current_temperature'
p550
F78.998
sS'total_run_time'
p551
F12.812422016666666
sS'target_temperature'
p552
F80.000006
sS'outside_temperature'
p553
F83.5
sS'$timestamp'
p554
S'2015-05-06T18:31:48.459607'
p555
sa(dp556
S'trans_time'
p557
I00
sS'ac_state'
p558
I00
sS'total_run_time_home'
p559
F12.812422016666666
sS'total_run_time_away'
p560
I0
sS'total_trans_time'
p561
I0
sS'away'
p562
I00
sS'target_type'
p563
Vcool
p564
sS'current_temperature'
p565
F79.898
sS'total_run_time'
p566
F12.812422016666666
sS'target_temperature'
p567
F80.000006
sS'outside_temperature'
p568
F85.1
sS'$timestamp'
p569
S'2015-05-06T18:34:48.705142'
p570
sa(dp571
S'trans_time'
p572
I00
sS'ac_state'
p573
I00
sS'total_run_time_home'
p574
F12.812422016666666
sS'total_run_time_away'
p575
I0
sS'total_trans_time'
p576
I0
sS'away'
p577
I00
sS'target_type'
p578
Vcool
p579
sS'current_temperature'
p580
F79.898
sS'total_run_time'
p581
F12.812422016666666
sS'target_temperature'
p582
F80.000006
sS'outside_temperature'
p583
F85.1
sS'$timestamp'
p584
S'2015-05-06T18:37:48.471429'
p585
sa(dp586
S'trans_time'
p587
I00
sS'ac_state'
p588
I00
sS'total_run_time_home'
p589
F12.812422016666666
sS'total_run_time_away'
p590
I0
sS'total_trans_time'
p591
I0
sS'away'
p592
I00
sS'target_type'
p593
Vcool
p594
sS'current_temperature'
p595
F79.898
sS'total_run_time'
p596
F12.812422016666666
sS'target_temperature'
p597
F80.000006
sS'outside_temperature'
p598
F82.8
sS'$timestamp'
p599
S'2015-05-06T18:40:48.635138'
p600
sa(dp601
S'trans_time'
p602
I00
sS'ac_state'
p603
I00
sS'total_run_time_home'
p604
F12.812422016666666
sS'total_run_time_away'
p605
I0
sS'total_trans_time'
p606
I0
sS'away'
p607
I00
sS'target_type'
p608
Vcool
p609
sS'current_temperature'
p610
F79.898
sS'total_run_time'
p611
F12.812422016666666
sS'target_temperature'
p612
F80.000006
sS'outside_temperature'
p613
F82.6
sS'$timestamp'
p614
S'2015-05-06T18:40:50.779079'
p615
sa(dp616
S'trans_time'
p617
I00
sS'ac_state'
p618
I00
sS'total_run_time_home'
p619
F12.812422016666666
sS'total_run_time_away'
p620
I0
sS'total_trans_time'
p621
I0
sS'away'
p622
I00
sS'target_type'
p623
Vcool
p624
sS'current_temperature'
p625
F79.898
sS'total_run_time'
p626
F12.812422016666666
sS'target_temperature'
p627
F80.000006
sS'outside_temperature'
p628
F82.6
sS'$timestamp'
p629
S'2015-05-06T18:42:49.777164'
p630
sa(dp631
S'trans_time'
p632
I00
sS'ac_state'
p633
I00
sS'total_run_time_home'
p634
F12.812422016666666
sS'total_run_time_away'
p635
I0
sS'total_trans_time'
p636
I0
sS'away'
p637
I00
sS'target_type'
p638
Vcool
p639
sS'current_temperature'
p640
F79.898
sS'total_run_time'
p641
F12.812422016666666
sS'target_temperature'
p642
F80.000006
sS'outside_temperature'
p643
F82.6
sS'$timestamp'
p644
S'2015-05-06T18:44:49.799334'
p645
sa(dp646
S'trans_time'
p647
I00
sS'ac_state'
p648
I00
sS'total_run_time_home'
p649
F12.812422016666666
sS'total_run_time_away'
p650
I0
sS'total_trans_time'
p651
I0
sS'away'
p652
I00
sS'target_type'
p653
Vcool
p654
sS'current_temperature'
p655
F79.898
sS'total_run_time'
p656
F12.812422016666666
sS'target_temperature'
p657
F80.000006
sS'outside_temperature'
p658
F82.6
sS'$timestamp'
p659
S'2015-05-06T18:46:50.079802'
p660
sa(dp661
S'trans_time'
p662
I00
sS'ac_state'
p663
I01
sS'total_run_time_home'
p664
F12.812422016666666
sS'total_run_time_away'
p665
I0
sS'total_trans_time'
p666
I0
sS'away'
p667
I00
sS'target_type'
p668
Vcool
p669
sS'current_temperature'
p670
F81.032
sS'total_run_time'
p671
F12.812422016666666
sS'target_temperature'
p672
F80.000006
sS'outside_temperature'
p673
F82.6
sS'$timestamp'
p674
S'2015-05-06T18:48:49.780383'
p675
sa(dp676
S'trans_time'
p677
I00
sS'ac_state'
p678
I01
sS'total_run_time_home'
p679
F14.812440633333333
sS'total_run_time_away'
p680
I0
sS'total_trans_time'
p681
I0
sS'away'
p682
I00
sS'target_type'
p683
Vcool
p684
sS'current_temperature'
p685
F81.032
sS'total_run_time'
p686
F14.812440633333333
sS'target_temperature'
p687
F80.000006
sS'outside_temperature'
p688
F82.6
sS'$timestamp'
p689
S'2015-05-06T18:50:49.781500'
p690
sa(dp691
S'trans_time'
p692
I00
sS'ac_state'
p693
I01
sS'total_run_time_home'
p694
F16.8164176
sS'total_run_time_away'
p695
I0
sS'total_trans_time'
p696
I0
sS'away'
p697
I00
sS'target_type'
p698
Vcool
p699
sS'current_temperature'
p700
F81.032
sS'total_run_time'
p701
F16.8164176
sS'target_temperature'
p702
F80.000006
sS'outside_temperature'
p703
F82.6
sS'$timestamp'
p704
S'2015-05-06T18:52:50.020118'
p705
sa(dp706
S'trans_time'
p707
I00
sS'ac_state'
p708
I01
sS'total_run_time_home'
p709
F18.812962116666668
sS'total_run_time_away'
p710
I0
sS'total_trans_time'
p711
I0
sS'away'
p712
I00
sS'target_type'
p713
Vcool
p714
sS'current_temperature'
p715
F80.474
sS'total_run_time'
p716
F18.812962116666668
sS'target_temperature'
p717
F80.000006
sS'outside_temperature'
p718
F82.6
sS'$timestamp'
p719
S'2015-05-06T18:54:49.812789'
p720
sa(dp721
S'trans_time'
p722
I00
sS'ac_state'
p723
I00
sS'total_run_time_home'
p724
F20.812102083333336
sS'total_run_time_away'
p725
I0
sS'total_trans_time'
p726
I0
sS'away'
p727
I00
sS'target_type'
p728
Vcool
p729
sS'current_temperature'
p730
F79.088
sS'total_run_time'
p731
F20.812102083333336
sS'target_temperature'
p732
F80.000006
sS'outside_temperature'
p733
F82.6
sS'$timestamp'
p734
S'2015-05-06T18:56:49.761187'
p735
sa(dp736
S'trans_time'
p737
I00
sS'ac_state'
p738
I00
sS'total_run_time_home'
p739
F20.812102083333336
sS'total_run_time_away'
p740
I0
sS'total_trans_time'
p741
I0
sS'away'
p742
I00
sS'target_type'
p743
Vcool
p744
sS'current_temperature'
p745
F79.088
sS'total_run_time'
p746
F20.812102083333336
sS'target_temperature'
p747
F80.000006
sS'outside_temperature'
p748
F82.6
sS'$timestamp'
p749
S'2015-05-06T18:58:50.311204'
p750
sa(dp751
S'trans_time'
p752
I00
sS'ac_state'
p753
I00
sS'total_run_time_home'
p754
F20.812102083333336
sS'total_run_time_away'
p755
I0
sS'total_trans_time'
p756
I0
sS'away'
p757
I00
sS'target_type'
p758
Vcool
p759
sS'current_temperature'
p760
F79.088
sS'total_run_time'
p761
F20.812102083333336
sS'target_temperature'
p762
F78.20060000000001
sS'outside_temperature'
p763
F82.6
sS'$timestamp'
p764
S'2015-05-06T19:00:49.799411'
p765
sa(dp766
S'trans_time'
p767
I00
sS'ac_state'
p768
I01
sS'total_run_time_home'
p769
F20.812102083333336
sS'total_run_time_away'
p770
I0
sS'total_trans_time'
p771
I0
sS'away'
p772
I00
sS'target_type'
p773
Vcool
p774
sS'current_temperature'
p775
F79.088
sS'total_run_time'
p776
F20.812102083333336
sS'target_temperature'
p777
F78.20060000000001
sS'outside_temperature'
p778
F82.6
sS'$timestamp'
p779
S'2015-05-06T19:02:49.768992'
p780
sa(dp781
S'trans_time'
p782
I00
sS'ac_state'
p783
I01
sS'total_run_time_home'
p784
F22.826011216666668
sS'total_run_time_away'
p785
I0
sS'total_trans_time'
p786
I0
sS'away'
p787
I00
sS'target_type'
p788
Vcool
p789
sS'current_temperature'
p790
F79.088
sS'total_run_time'
p791
F22.826011216666668
sS'target_temperature'
p792
F78.20060000000001
sS'outside_temperature'
p793
F82.6
sS'$timestamp'
p794
S'2015-05-06T19:04:50.603540'
p795
sa(dp796
S'trans_time'
p797
I00
sS'ac_state'
p798
I01
sS'total_run_time_home'
p799
F24.81270595
sS'total_run_time_away'
p800
I0
sS'total_trans_time'
p801
I0
sS'away'
p802
I00
sS'target_type'
p803
Vcool
p804
sS'current_temperature'
p805
F79.088
sS'total_run_time'
p806
F24.81270595
sS'target_temperature'
p807
F78.20060000000001
sS'outside_temperature'
p808
F82.6
sS'$timestamp'
p809
S'2015-05-06T19:06:49.805224'
p810
sa(dp811
S'trans_time'
p812
I00
sS'ac_state'
p813
I01
sS'total_run_time_home'
p814
F26.8121538
sS'total_run_time_away'
p815
I0
sS'total_trans_time'
p816
I0
sS'away'
p817
I00
sS'target_type'
p818
Vcool
p819
sS'current_temperature'
p820
F79.088
sS'total_run_time'
p821
F26.8121538
sS'target_temperature'
p822
F78.20060000000001
sS'outside_temperature'
p823
F82.6
sS'$timestamp'
p824
S'2015-05-06T19:08:49.772095'
p825
sa(dp826
S'trans_time'
p827
I00
sS'ac_state'
p828
I00
sS'total_run_time_home'
p829
F28.8160355
sS'total_run_time_away'
p830
I0
sS'total_trans_time'
p831
I0
sS'away'
p832
I00
sS'target_type'
p833
Vcool
p834
sS'current_temperature'
p835
F78.404
sS'total_run_time'
p836
F28.8160355
sS'target_temperature'
p837
F78.20060000000001
sS'outside_temperature'
p838
F82.6
sS'$timestamp'
p839
S'2015-05-06T19:10:50.004997'
p840
sa(dp841
S'trans_time'
p842
I00
sS'ac_state'
p843
I00
sS'total_run_time_home'
p844
F28.8160355
sS'total_run_time_away'
p845
I0
sS'total_trans_time'
p846
I0
sS'away'
p847
I00
sS'target_type'
p848
Vcool
p849
sS'current_temperature'
p850
F78.404
sS'total_run_time'
p851
F28.8160355
sS'target_temperature'
p852
F78.20060000000001
sS'outside_temperature'
p853
F82.6
sS'$timestamp'
p854
S'2015-05-06T19:12:49.788823'
p855
sa(dp856
S'trans_time'
p857
I00
sS'ac_state'
p858
I00
sS'total_run_time_home'
p859
F28.8160355
sS'total_run_time_away'
p860
I0
sS'total_trans_time'
p861
I0
sS'away'
p862
I00
sS'target_type'
p863
Vcool
p864
sS'current_temperature'
p865
F78.404
sS'total_run_time'
p866
F28.8160355
sS'target_temperature'
p867
F78.20060000000001
sS'outside_temperature'
p868
F82.6
sS'$timestamp'
p869
S'2015-05-06T19:14:49.790056'
p870
sa(dp871
S'trans_time'
p872
I00
sS'ac_state'
p873
I00
sS'total_run_time_home'
p874
F28.8160355
sS'total_run_time_away'
p875
I0
sS'total_trans_time'
p876
I0
sS'away'
p877
I00
sS'target_type'
p878
Vcool
p879
sS'current_temperature'
p880
F78.404
sS'total_run_time'
p881
F28.8160355
sS'target_temperature'
p882
F78.20060000000001
sS'outside_temperature'
p883
F82.6
sS'$timestamp'
p884
S'2015-05-06T19:16:49.968222'
p885
sa(dp886
S'trans_time'
p887
I00
sS'ac_state'
p888
I00
sS'total_run_time_home'
p889
F28.8160355
sS'total_run_time_away'
p890
I0
sS'total_trans_time'
p891
I0
sS'away'
p892
I00
sS'target_type'
p893
Vcool
p894
sS'current_temperature'
p895
F78.404
sS'total_run_time'
p896
F28.8160355
sS'target_temperature'
p897
F78.20060000000001
sS'outside_temperature'
p898
F82.6
sS'$timestamp'
p899
S'2015-05-06T19:18:49.764308'
p900
sa(dp901
S'trans_time'
p902
I00
sS'ac_state'
p903
I00
sS'total_run_time_home'
p904
F28.8160355
sS'total_run_time_away'
p905
I0
sS'total_trans_time'
p906
I0
sS'away'
p907
I00
sS'target_type'
p908
Vcool
p909
sS'current_temperature'
p910
F78.404
sS'total_run_time'
p911
F28.8160355
sS'target_temperature'
p912
F78.20060000000001
sS'outside_temperature'
p913
F82.6
sS'$timestamp'
p914
S'2015-05-06T19:20:49.792298'
p915
sa(dp916
S'trans_time'
p917
I00
sS'ac_state'
p918
I01
sS'total_run_time_home'
p919
F28.8160355
sS'total_run_time_away'
p920
I0
sS'total_trans_time'
p921
I0
sS'away'
p922
I00
sS'target_type'
p923
Vcool
p924
sS'current_temperature'
p925
F79.232
sS'total_run_time'
p926
F28.8160355
sS'target_temperature'
p927
F78.20060000000001
sS'outside_temperature'
p928
F79.9
sS'$timestamp'
p929
S'2015-05-06T19:22:50.059365'
p930
sa(dp931
S'trans_time'
p932
I00
sS'ac_state'
p933
I01
sS'total_run_time_home'
p934
F30.81132295
sS'total_run_time_away'
p935
I0
sS'total_trans_time'
p936
I0
sS'away'
p937
I00
sS'target_type'
p938
Vcool
p939
sS'current_temperature'
p940
F79.232
sS'total_run_time'
p941
F30.81132295
sS'target_temperature'
p942
F78.20060000000001
sS'outside_temperature'
p943
F79.9
sS'$timestamp'
p944
S'2015-05-06T19:24:49.776612'
p945
sa(dp946
S'trans_time'
p947
I00
sS'ac_state'
p948
I01
sS'total_run_time_home'
p949
F32.81157915
sS'total_run_time_away'
p950
I0
sS'total_trans_time'
p951
I0
sS'away'
p952
I00
sS'target_type'
p953
Vcool
p954
sS'current_temperature'
p955
F79.232
sS'total_run_time'
p956
F32.81157915
sS'target_temperature'
p957
F78.20060000000001
sS'outside_temperature'
p958
F79.9
sS'$timestamp'
p959
S'2015-05-06T19:26:49.791984'
p960
sa(dp961
S'trans_time'
p962
I00
sS'ac_state'
p963
I00
sS'total_run_time_home'
p964
F34.816275516666664
sS'total_run_time_away'
p965
I0
sS'total_trans_time'
p966
I0
sS'away'
p967
I00
sS'target_type'
p968
Vcool
p969
sS'current_temperature'
p970
F77.81
sS'total_run_time'
p971
F34.816275516666664
sS'target_temperature'
p972
F78.20060000000001
sS'outside_temperature'
p973
F79.8
sS'$timestamp'
p974
S'2015-05-06T19:28:50.073766'
p975
sa(dp976
S'trans_time'
p977
I00
sS'ac_state'
p978
I00
sS'total_run_time_home'
p979
F34.816275516666664
sS'total_run_time_away'
p980
I0
sS'total_trans_time'
p981
I0
sS'away'
p982
I00
sS'target_type'
p983
Vcool
p984
sS'current_temperature'
p985
F77.414
sS'total_run_time'
p986
F34.816275516666664
sS'target_temperature'
p987
F78.20060000000001
sS'outside_temperature'
p988
F79.8
sS'$timestamp'
p989
S'2015-05-06T19:30:49.730740'
p990
sa(dp991
S'trans_time'
p992
I00
sS'ac_state'
p993
I00
sS'total_run_time_home'
p994
F34.816275516666664
sS'total_run_time_away'
p995
I0
sS'total_trans_time'
p996
I0
sS'away'
p997
I00
sS'target_type'
p998
Vcool
p999
sS'current_temperature'
p1000
F77.414
sS'total_run_time'
p1001
F34.816275516666664
sS'target_temperature'
p1002
F78.20060000000001
sS'outside_temperature'
p1003
F79.8
sS'$timestamp'
p1004
S'2015-05-06T19:32:49.783904'
p1005
sa(dp1006
S'trans_time'
p1007
I00
sS'ac_state'
p1008
I00
sS'total_run_time_home'
p1009
F34.816275516666664
sS'total_run_time_away'
p1010
I0
sS'total_trans_time'
p1011
I0
sS'away'
p1012
I00
sS'target_type'
p1013
Vcool
p1014
sS'current_temperature'
p1015
F77.414
sS'total_run_time'
p1016
F34.816275516666664
sS'target_temperature'
p1017
F78.20060000000001
sS'outside_temperature'
p1018
F79.4
sS'$timestamp'
p1019
S'2015-05-06T19:34:50.438310'
p1020
sa(dp1021
S'trans_time'
p1022
I00
sS'ac_state'
p1023
I00
sS'total_run_time_home'
p1024
F34.816275516666664
sS'total_run_time_away'
p1025
I0
sS'total_trans_time'
p1026
I0
sS'away'
p1027
I00
sS'target_type'
p1028
Vcool
p1029
sS'current_temperature'
p1030
F77.414
sS'total_run_time'
p1031
F34.816275516666664
sS'target_temperature'
p1032
F78.20060000000001
sS'outside_temperature'
p1033
F79.4
sS'$timestamp'
p1034
S'2015-05-06T19:36:49.778499'
p1035
sa(dp1036
S'trans_time'
p1037
I00
sS'ac_state'
p1038
I00
sS'total_run_time_home'
p1039
F34.816275516666664
sS'total_run_time_away'
p1040
I0
sS'total_trans_time'
p1041
I0
sS'away'
p1042
I00
sS'target_type'
p1043
Vcool
p1044
sS'current_temperature'
p1045
F77.414
sS'total_run_time'
p1046
F34.816275516666664
sS'target_temperature'
p1047
F78.20060000000001
sS'outside_temperature'
p1048
F79.4
sS'$timestamp'
p1049
S'2015-05-06T19:38:49.789104'
p1050
sa(dp1051
S'trans_time'
p1052
I00
sS'ac_state'
p1053
I00
sS'total_run_time_home'
p1054
F34.816275516666664
sS'total_run_time_away'
p1055
I0
sS'total_trans_time'
p1056
I0
sS'away'
p1057
I00
sS'target_type'
p1058
Vcool
p1059
sS'current_temperature'
p1060
F77.414
sS'total_run_time'
p1061
F34.816275516666664
sS'target_temperature'
p1062
F78.20060000000001
sS'outside_temperature'
p1063
F79.3
sS'$timestamp'
p1064
S'2015-05-06T19:40:49.991636'
p1065
sa(dp1066
S'trans_time'
p1067
I00
sS'ac_state'
p1068
I01
sS'total_run_time_home'
p1069
F34.816275516666664
sS'total_run_time_away'
p1070
I0
sS'total_trans_time'
p1071
I0
sS'away'
p1072
I00
sS'target_type'
p1073
Vcool
p1074
sS'current_temperature'
p1075
F79.268
sS'total_run_time'
p1076
F34.816275516666664
sS'target_temperature'
p1077
F78.20060000000001
sS'outside_temperature'
p1078
F79.3
sS'$timestamp'
p1079
S'2015-05-06T19:42:49.803916'
p1080
sa(dp1081
S'trans_time'
p1082
I00
sS'ac_state'
p1083
I01
sS'total_run_time_home'
p1084
F36.8156283
sS'total_run_time_away'
p1085
I0
sS'total_trans_time'
p1086
I0
sS'away'
p1087
I00
sS'target_type'
p1088
Vcool
p1089
sS'current_temperature'
p1090
F79.268
sS'total_run_time'
p1091
F36.8156283
sS'target_temperature'
p1092
F78.20060000000001
sS'outside_temperature'
p1093
F79.3
sS'$timestamp'
p1094
S'2015-05-06T19:44:49.765083'
p1095
sa(dp1096
S'trans_time'
p1097
I00
sS'ac_state'
p1098
I01
sS'total_run_time_home'
p1099
F38.82016828333333
sS'total_run_time_away'
p1100
I0
sS'total_trans_time'
p1101
I0
sS'away'
p1102
I00
sS'target_type'
p1103
Vcool
p1104
sS'current_temperature'
p1105
F78.224
sS'total_run_time'
p1106
F38.82016828333333
sS'target_temperature'
p1107
F78.20060000000001
sS'outside_temperature'
p1108
F78.9
sS'$timestamp'
p1109
S'2015-05-06T19:46:50.037482'
p1110
sa(dp1111
S'trans_time'
p1112
I00
sS'ac_state'
p1113
I01
sS'total_run_time_home'
p1114
F40.815878016666666
sS'total_run_time_away'
p1115
I0
sS'total_trans_time'
p1116
I0
sS'away'
p1117
I00
sS'target_type'
p1118
Vcool
p1119
sS'current_temperature'
p1120
F78.224
sS'total_run_time'
p1121
F40.815878016666666
sS'target_temperature'
p1122
F78.20060000000001
sS'outside_temperature'
p1123
F78.9
sS'$timestamp'
p1124
S'2015-05-06T19:48:49.780066'
p1125
sa(dp1126
S'trans_time'
p1127
I00
sS'ac_state'
p1128
I01
sS'total_run_time_home'
p1129
F42.135742199999996
sS'total_run_time_away'
p1130
I0
sS'total_trans_time'
p1131
I0
sS'away'
p1132
I00
sS'target_type'
p1133
Vcool
p1134
sS'current_temperature'
p1135
F78.224
sS'total_run_time'
p1136
F42.135742199999996
sS'target_temperature'
p1137
F78.20060000000001
sS'outside_temperature'
p1138
F79.9
sS'$timestamp'
p1139
S'2015-05-06T19:50:08.971917'
p1140
sa.