(lp0
(dp1
S'trans_time'
p2
I00
sS'ac_state'
p3
I01
sS'total_run_time_home'
p4
I0
sS'total_run_time_away'
p5
I0
sS'total_trans_time'
p6
I0
sS'away'
p7
I00
sS'target_type'
p8
Vcool
p9
sS'current_temperature'
p10
F78.71
sS'total_run_time'
p11
I0
sS'target_temperature'
p12
F75.999992
sS'outside_temperature'
p13
F83.7
sS'$timestamp'
p14
S'2015-05-06T12:01:18'
p15
sa(dp16
S'trans_time'
p17
I00
sS'ac_state'
p18
I01
sS'total_run_time_home'
p19
F4.95
sS'total_run_time_away'
p20
I0
sS'total_trans_time'
p21
I0
sS'away'
p22
I00
sS'target_type'
p23
Vcool
p24
sS'current_temperature'
p25
F78.008
sS'total_run_time'
p26
F4.95
sS'target_temperature'
p27
F77.0
sS'outside_temperature'
p28
F83.7
sS'$timestamp'
p29
S'2015-05-06T12:06:15'
p30
sa(dp31
S'trans_time'
p32
I00
sS'ac_state'
p33
I01
sS'total_run_time_home'
p34
F5.283333333333333
sS'total_run_time_away'
p35
I0
sS'total_trans_time'
p36
I0
sS'away'
p37
I00
sS'target_type'
p38
Vcool
p39
sS'current_temperature'
p40
F78.008
sS'total_run_time'
p41
F5.283333333333333
sS'target_temperature'
p42
F78.000008
sS'outside_temperature'
p43
F83.7
sS'$timestamp'
p44
S'2015-05-06T12:06:35'
p45
sa(dp46
S'trans_time'
p47
I00
sS'ac_state'
p48
I00
sS'total_run_time_home'
p49
F5.333333333333333
sS'total_run_time_away'
p50
I0
sS'total_trans_time'
p51
I0
sS'away'
p52
I00
sS'target_type'
p53
Vcool
p54
sS'current_temperature'
p55
F78.008
sS'total_run_time'
p56
F5.333333333333333
sS'target_temperature'
p57
F78.000008
sS'outside_temperature'
p58
F83.7
sS'$timestamp'
p59
S'2015-05-06T12:06:38'
p60
sa(dp61
S'trans_time'
p62
I00
sS'ac_state'
p63
I00
sS'total_run_time_home'
p64
F5.333333333333333
sS'total_run_time_away'
p65
I0
sS'total_trans_time'
p66
I0
sS'away'
p67
I00
sS'target_type'
p68
Vcool
p69
sS'current_temperature'
p70
F77.036
sS'total_run_time'
p71
F5.333333333333333
sS'target_temperature'
p72
F78.000008
sS'outside_temperature'
p73
F85.6
sS'$timestamp'
p74
S'2015-05-06T12:09:38'
p75
sa(dp76
S'trans_time'
p77
I00
sS'ac_state'
p78
I01
sS'total_run_time_home'
p79
F5.333333333333333
sS'total_run_time_away'
p80
I0
sS'total_trans_time'
p81
I0
sS'away'
p82
I00
sS'target_type'
p83
Vcool
p84
sS'current_temperature'
p85
F79.03399999999999
sS'total_run_time'
p86
F5.333333333333333
sS'target_temperature'
p87
F78.000008
sS'outside_temperature'
p88
F86.2
sS'$timestamp'
p89
S'2015-05-06T12:28:38'
p90
sa(dp91
S'trans_time'
p92
I00
sS'ac_state'
p93
I00
sS'total_run_time_home'
p94
F13.850000000000001
sS'total_run_time_away'
p95
I0
sS'total_trans_time'
p96
I0
sS'away'
p97
I00
sS'target_type'
p98
Vcool
p99
sS'current_temperature'
p100
F77.18
sS'total_run_time'
p101
F13.850000000000001
sS'target_temperature'
p102
F78.000008
sS'outside_temperature'
p103
F86.2
sS'$timestamp'
p104
S'2015-05-06T12:37:09'
p105
sa(dp106
S'trans_time'
p107
I00
sS'ac_state'
p108
I01
sS'total_run_time_home'
p109
F13.850000000000001
sS'total_run_time_away'
p110
I0
sS'total_trans_time'
p111
I0
sS'away'
p112
I00
sS'target_type'
p113
Vcool
p114
sS'current_temperature'
p115
F78.656
sS'total_run_time'
p116
F13.850000000000001
sS'target_temperature'
p117
F75.999992
sS'outside_temperature'
p118
F84.4
sS'$timestamp'
p119
S'2015-05-06T12:54:10'
p120
sa(dp121
S'trans_time'
p122
I00
sS'ac_state'
p123
I00
sS'total_run_time_home'
p124
F20.283333333333335
sS'total_run_time_away'
p125
I0
sS'total_trans_time'
p126
I0
sS'away'
p127
I00
sS'target_type'
p128
Vcool
p129
sS'current_temperature'
p130
F77.36
sS'total_run_time'
p131
F20.283333333333335
sS'target_temperature'
p132
F78.000008
sS'outside_temperature'
p133
F88.5
sS'$timestamp'
p134
S'2015-05-06T13:00:36'
p135
sa(dp136
S'trans_time'
p137
I00
sS'ac_state'
p138
I00
sS'total_run_time_home'
p139
F20.283333333333335
sS'total_run_time_away'
p140
I0
sS'total_trans_time'
p141
I0
sS'away'
p142
I00
sS'target_type'
p143
Vcool
p144
sS'current_temperature'
p145
F77.36
sS'total_run_time'
p146
F20.283333333333335
sS'target_temperature'
p147
F78.000008
sS'outside_temperature'
p148
F88.5
sS'$timestamp'
p149
S'2015-05-06T13:02:08'
p150
sa.